	.text
	.syntax unified
	.eabi_attribute	67, "2.09"	@ Tag_conformance
	.cpu	cortex-a8
	.eabi_attribute	6, 10	@ Tag_CPU_arch
	.eabi_attribute	7, 65	@ Tag_CPU_arch_profile
	.eabi_attribute	8, 1	@ Tag_ARM_ISA_use
	.eabi_attribute	9, 2	@ Tag_THUMB_ISA_use
	.fpu	neon
	.eabi_attribute	17, 1	@ Tag_ABI_PCS_GOT_use
	.eabi_attribute	20, 2	@ Tag_ABI_FP_denormal
	.eabi_attribute	23, 1	@ Tag_ABI_FP_number_model
	.eabi_attribute	34, 1	@ Tag_CPU_unaligned_access
	.eabi_attribute	24, 1	@ Tag_ABI_align_needed
	.eabi_attribute	25, 1	@ Tag_ABI_align_preserved
	.eabi_attribute	28, 1	@ Tag_ABI_VFP_args
	.eabi_attribute	38, 1	@ Tag_ABI_FP_16bit_format
	.eabi_attribute	18, 4	@ Tag_ABI_PCS_wchar_t
	.eabi_attribute	26, 2	@ Tag_ABI_enum_size
	.eabi_attribute	14, 0	@ Tag_ABI_PCS_R9_use
	.eabi_attribute	68, 1	@ Tag_Virtualization_use
	.file	"/root/Bela/projects/haid_01_button_C/build/render.bc"
	.file	1 "/root/Bela/projects/haid_01_button_C" "render.cpp"
	.file	2 "./libraries/Oscillator" "Oscillator.h"
	.file	3 "/usr/bin/../lib/gcc/arm-linux-gnueabihf/6.3.0/../../../../include/arm-linux-gnueabihf/c++/6.3.0/bits" "c++config.h"
	.file	4 "/usr/bin/../lib/gcc/arm-linux-gnueabihf/6.3.0/../../../../include/c++/6.3.0/bits" "alloc_traits.h"
	.file	5 "/usr/bin/../lib/gcc/arm-linux-gnueabihf/6.3.0/../../../../include/c++/6.3.0/ext" "new_allocator.h"
	.file	6 "/usr/bin/../lib/gcc/arm-linux-gnueabihf/6.3.0/../../../../include/arm-linux-gnueabihf/c++/6.3.0/bits" "c++allocator.h"
	.file	7 "/usr/bin/../lib/gcc/arm-linux-gnueabihf/6.3.0/../../../../include/c++/6.3.0/bits" "allocator.h"
	.file	8 "/usr/bin/../lib/gcc/arm-linux-gnueabihf/6.3.0/../../../../include/c++/6.3.0/ext" "alloc_traits.h"
	.file	9 "/usr/bin/../lib/gcc/arm-linux-gnueabihf/6.3.0/../../../../include/c++/6.3.0/bits" "stl_vector.h"
	.file	10 "/usr/bin/../lib/gcc/arm-linux-gnueabihf/6.3.0/../../../../include/c++/6.3.0" "type_traits"
	.file	11 "./libraries/Gui" "Gui.h"
	.file	12 "/usr/bin/../lib/gcc/arm-linux-gnueabihf/6.3.0/../../../../include/c++/6.3.0/bits" "unique_ptr.h"
	.file	13 "/usr/bin/../lib/gcc/arm-linux-gnueabihf/6.3.0/../../../../include/c++/6.3.0" "tuple"
	.file	14 "/usr/bin/../lib/gcc/arm-linux-gnueabihf/6.3.0/../../../../include/c++/6.3.0/bits" "uses_allocator.h"
	.file	15 "/usr/bin/../lib/gcc/arm-linux-gnueabihf/6.3.0/../../../../include/c++/6.3.0/bits" "stringfwd.h"
	.file	16 "/usr/bin/../lib/gcc/arm-linux-gnueabihf/6.3.0/../../../../include/c++/6.3.0/bits" "stl_function.h"
	.file	17 "/usr/bin/../lib/gcc/arm-linux-gnueabihf/6.3.0/../../../../include/c++/6.3.0" "functional"
	.file	18 "/usr/lib/llvm-3.9/bin/../lib/clang/3.9.1/include" "stddef.h"
	.file	19 "./libraries/GuiController" "GuiSlider.h"
	.file	20 "./include" "JSON.h"
	.file	21 "./libraries/GuiController" "GuiController.h"
	.file	22 "/root/Bela/projects/haid_01_button_C/ASR" "ASR.h"
	.file	23 "/usr/bin/../lib/gcc/arm-linux-gnueabihf/6.3.0/../../../../include/c++/6.3.0/ext" "concurrence.h"
	.file	24 "./include" "Bela.h"
	.file	25 "/usr/bin/../lib/gcc/arm-linux-gnueabihf/6.3.0/../../../../include/c++/6.3.0/bits" "basic_string.h"
	.file	26 "/usr/bin/../lib/gcc/arm-linux-gnueabihf/6.3.0/../../../../include/c++/6.3.0/bits" "char_traits.h"
	.file	27 "/usr/bin/../lib/gcc/arm-linux-gnueabihf/6.3.0/../../../../include/c++/6.3.0/debug" "debug.h"
	.file	28 "/usr/bin/../lib/gcc/arm-linux-gnueabihf/6.3.0/../../../../include/c++/6.3.0/bits" "exception_ptr.h"
	.file	29 "/usr/include" "wchar.h"
	.file	30 "/usr/include" "libio.h"
	.file	31 "/usr/include/arm-linux-gnueabihf/bits" "types.h"
	.file	32 "/usr/include" "stdio.h"
	.file	33 "/usr/lib/llvm-3.9/bin/../lib/clang/3.9.1/include" "stdarg.h"
	.file	34 "/usr/include" "stdint.h"
	.file	35 "/usr/include" "locale.h"
	.file	36 "/usr/include" "ctype.h"
	.file	37 "/usr/include" "stdlib.h"
	.file	38 "/usr/include/arm-linux-gnueabihf/bits" "stdlib-float.h"
	.file	39 "/usr/include/arm-linux-gnueabihf/bits" "stdlib-bsearch.h"
	.file	40 "/usr/bin/../lib/gcc/arm-linux-gnueabihf/6.3.0/../../../../include/c++/6.3.0" "cstdlib"
	.file	41 "/usr/include" "_G_config.h"
	.file	42 "/usr/include/arm-linux-gnueabihf/bits" "stdio.h"
	.file	43 "/usr/include" "string.h"
	.file	44 "/usr/include/arm-linux-gnueabihf/bits" "math-finite.h"
	.file	45 "/usr/include/arm-linux-gnueabihf/bits" "mathcalls.h"
	.file	46 "/usr/include/arm-linux-gnueabihf/bits" "mathdef.h"
	.globl	setup
	.p2align	3
	.type	setup,%function
setup:                                  @ @setup
.Lfunc_begin0:
	.loc	1 60 0                  @ /root/Bela/projects/haid_01_button_C/render.cpp:60:0
	.fnstart
	.cfi_startproc
@ BB#0:
	.save	{r4, r5, r6, r7, r8, r10, r11, lr}
	push	{r4, r5, r6, r7, r8, r10, r11, lr}
.Ltmp24:
	.cfi_def_cfa_offset 32
.Ltmp25:
	.cfi_offset lr, -4
.Ltmp26:
	.cfi_offset r11, -8
.Ltmp27:
	.cfi_offset r10, -12
.Ltmp28:
	.cfi_offset r8, -16
.Ltmp29:
	.cfi_offset r7, -20
.Ltmp30:
	.cfi_offset r6, -24
.Ltmp31:
	.cfi_offset r5, -28
.Ltmp32:
	.cfi_offset r4, -32
	.setfp	r11, sp, #24
	add	r11, sp, #24
.Ltmp33:
	.cfi_def_cfa r11, 8
	.vsave	{d8}
	vpush	{d8}
.Ltmp34:
	.cfi_offset d8, -40
	.pad	#176
	sub	sp, sp, #176
	@DEBUG_VALUE: setup:context <- %R0
	@DEBUG_VALUE: setup:userData <- %R1
.Ltmp35:
	.loc	1 62 12 prologue_end    @ /root/Bela/projects/haid_01_button_C/render.cpp:62:12
	movw	r8, :lower16:.L_MergedGlobals
	mov	r4, r0
.Ltmp36:
	@DEBUG_VALUE: setup:context <- %R4
	movt	r8, :upper16:.L_MergedGlobals
	.loc	1 62 27 is_stmt 0       @ /root/Bela/projects/haid_01_button_C/render.cpp:62:27
	vldr	s0, [r4, #32]
	.loc	1 62 12                 @ /root/Bela/projects/haid_01_button_C/render.cpp:62:12
	add	r0, r8, #56
.Ltmp37:
	@DEBUG_VALUE: setType:this <- %R0
	mov	r1, #0
.Ltmp38:
	mov	r5, #0
	bl	_ZN10Oscillator5setupEfNS_4TypeE
.Ltmp39:
	@DEBUG_VALUE: setType:type <- 0
	.loc	2 25 9 is_stmt 1        @ ./libraries/Oscillator/Oscillator.h:25:9
	str	r5, [r8, #68]
.Ltmp40:
	.loc	1 65 13                 @ /root/Bela/projects/haid_01_button_C/render.cpp:65:13
	add	r0, r8, #72
.Ltmp41:
	@DEBUG_VALUE: setType:this <- %R0
	.loc	1 65 28 is_stmt 0       @ /root/Bela/projects/haid_01_button_C/render.cpp:65:28
	vldr	s0, [r4, #32]
	.loc	1 65 13                 @ /root/Bela/projects/haid_01_button_C/render.cpp:65:13
	mov	r1, #0
	bl	_ZN10Oscillator5setupEfNS_4TypeE
.Ltmp42:
	@DEBUG_VALUE: setType:type <- 0
	.loc	2 25 9 is_stmt 1        @ ./libraries/Oscillator/Oscillator.h:25:9
	str	r5, [r8, #84]
.Ltmp43:
	.loc	1 70 12                 @ /root/Bela/projects/haid_01_button_C/render.cpp:70:12
	add	r5, r4, #92
.Ltmp44:
	@DEBUG_VALUE: basic_string:__s <- %R5
	@DEBUG_VALUE: length:__s <- %R5
	@DEBUG_VALUE: _M_construct<const char *>:__beg <- %R5
	@DEBUG_VALUE: _M_construct_aux<const char *>:__beg <- %R5
	@DEBUG_VALUE: _M_construct<const char *>:__beg <- %R5
	@DEBUG_VALUE: _S_copy_chars:__k1 <- %R5
	@DEBUG_VALUE: _S_copy:__s <- %R5
	@DEBUG_VALUE: assign:__c2 <- %R5
	sub	r0, r11, #64
.Ltmp45:
	@DEBUG_VALUE: _M_construct<const char *>:this <- %R0
	@DEBUG_VALUE: _M_construct_aux<const char *>:this <- %R0
	@DEBUG_VALUE: _M_construct<const char *>:this <- %R0
	@DEBUG_VALUE: _M_local_data:this <- %R0
	.loc	25 142 51               @ /usr/bin/../lib/gcc/arm-linux-gnueabihf/6.3.0/../../../../include/c++/6.3.0/bits/basic_string.h:142:51
	add	r7, r0, #8
.Ltmp46:
	.loc	26 267 16               @ /usr/bin/../lib/gcc/arm-linux-gnueabihf/6.3.0/../../../../include/c++/6.3.0/bits/char_traits.h:267:16
	mov	r0, r5
.Ltmp47:
	.loc	25 110 25               @ /usr/bin/../lib/gcc/arm-linux-gnueabihf/6.3.0/../../../../include/c++/6.3.0/bits/basic_string.h:110:25
	str	r7, [r11, #-64]
.Ltmp48:
	.loc	26 267 16               @ /usr/bin/../lib/gcc/arm-linux-gnueabihf/6.3.0/../../../../include/c++/6.3.0/bits/char_traits.h:267:16
	bl	strlen
	mov	r6, r0
.Ltmp49:
	@DEBUG_VALUE: _M_construct<const char *>:__dnew <- %R6
	@DEBUG_VALUE: _S_copy:__n <- %R6
	.file	47 "/usr/bin/../lib/gcc/arm-linux-gnueabihf/6.3.0/../../../../include/c++/6.3.0/bits" "basic_string.tcc"
	.loc	47 217 6                @ /usr/bin/../lib/gcc/arm-linux-gnueabihf/6.3.0/../../../../include/c++/6.3.0/bits/basic_string.tcc:217:6
	cmp	r6, #15
	.loc	47 215 12               @ /usr/bin/../lib/gcc/arm-linux-gnueabihf/6.3.0/../../../../include/c++/6.3.0/bits/basic_string.tcc:215:12
	str	r6, [r11, #-40]
	bls	.LBB0_3
.Ltmp50:
@ BB#1:                                 @ %.noexc8.i
	@DEBUG_VALUE: _S_copy:__n <- %R6
	@DEBUG_VALUE: _M_construct<const char *>:__dnew <- %R6
	@DEBUG_VALUE: assign:__c2 <- %R5
	@DEBUG_VALUE: _S_copy:__s <- %R5
	@DEBUG_VALUE: _S_copy_chars:__k1 <- %R5
	@DEBUG_VALUE: _M_construct<const char *>:__beg <- %R5
	@DEBUG_VALUE: _M_construct_aux<const char *>:__beg <- %R5
	@DEBUG_VALUE: _M_construct<const char *>:__beg <- %R5
	@DEBUG_VALUE: length:__s <- %R5
	@DEBUG_VALUE: basic_string:__s <- %R5
	@DEBUG_VALUE: setup:context <- %R4
	.loc	47 219 14               @ /usr/bin/../lib/gcc/arm-linux-gnueabihf/6.3.0/../../../../include/c++/6.3.0/bits/basic_string.tcc:219:14
.Ltmp0:
	sub	r0, r11, #64
	sub	r1, r11, #40
.Ltmp51:
	@DEBUG_VALUE: _M_construct<const char *>:__dnew <- [%R1+0]
	mov	r2, #0
	bl	_ZNSt7__cxx1112basic_stringIcSt11char_traitsIcESaIcEE9_M_createERjj
.Ltmp52:
.Ltmp1:
.Ltmp53:
@ BB#2:                                 @ %.noexc
	@DEBUG_VALUE: _S_copy:__n <- %R6
	@DEBUG_VALUE: assign:__c2 <- %R5
	@DEBUG_VALUE: _S_copy:__s <- %R5
	@DEBUG_VALUE: _S_copy_chars:__k1 <- %R5
	@DEBUG_VALUE: _M_construct<const char *>:__beg <- %R5
	@DEBUG_VALUE: _M_construct_aux<const char *>:__beg <- %R5
	@DEBUG_VALUE: _M_construct<const char *>:__beg <- %R5
	@DEBUG_VALUE: length:__s <- %R5
	@DEBUG_VALUE: basic_string:__s <- %R5
	@DEBUG_VALUE: setup:context <- %R4
	@DEBUG_VALUE: _M_data:__p <- %R0
	.loc	47 220 18               @ /usr/bin/../lib/gcc/arm-linux-gnueabihf/6.3.0/../../../../include/c++/6.3.0/bits/basic_string.tcc:220:18
	ldr	r1, [r11, #-40]
.Ltmp54:
	@DEBUG_VALUE: _M_capacity:__capacity <- %R1
	@DEBUG_VALUE: _M_construct<const char *>:__dnew <- %R1
	.loc	25 128 26               @ /usr/bin/../lib/gcc/arm-linux-gnueabihf/6.3.0/../../../../include/c++/6.3.0/bits/basic_string.h:128:26
	str	r0, [r11, #-64]
.Ltmp55:
	.loc	25 160 31               @ /usr/bin/../lib/gcc/arm-linux-gnueabihf/6.3.0/../../../../include/c++/6.3.0/bits/basic_string.h:160:31
	str	r1, [r11, #-56]
	b	.LBB0_4
.Ltmp56:
.LBB0_3:                                @ %._crit_edge.i.i.i.i
	@DEBUG_VALUE: _S_copy:__n <- %R6
	@DEBUG_VALUE: _M_construct<const char *>:__dnew <- %R6
	@DEBUG_VALUE: assign:__c2 <- %R5
	@DEBUG_VALUE: _S_copy:__s <- %R5
	@DEBUG_VALUE: _S_copy_chars:__k1 <- %R5
	@DEBUG_VALUE: _M_construct<const char *>:__beg <- %R5
	@DEBUG_VALUE: _M_construct_aux<const char *>:__beg <- %R5
	@DEBUG_VALUE: _M_construct<const char *>:__beg <- %R5
	@DEBUG_VALUE: length:__s <- %R5
	@DEBUG_VALUE: basic_string:__s <- %R5
	@DEBUG_VALUE: setup:context <- %R4
	.loc	25 136 28               @ /usr/bin/../lib/gcc/arm-linux-gnueabihf/6.3.0/../../../../include/c++/6.3.0/bits/basic_string.h:136:28
	mov	r0, r7
.Ltmp57:
.LBB0_4:
	@DEBUG_VALUE: _S_copy:__n <- %R6
	@DEBUG_VALUE: assign:__c2 <- %R5
	@DEBUG_VALUE: _S_copy:__s <- %R5
	@DEBUG_VALUE: _S_copy_chars:__k1 <- %R5
	@DEBUG_VALUE: _M_construct<const char *>:__beg <- %R5
	@DEBUG_VALUE: _M_construct_aux<const char *>:__beg <- %R5
	@DEBUG_VALUE: _M_construct<const char *>:__beg <- %R5
	@DEBUG_VALUE: length:__s <- %R5
	@DEBUG_VALUE: basic_string:__s <- %R5
	@DEBUG_VALUE: setup:context <- %R4
	.loc	25 297 6                @ /usr/bin/../lib/gcc/arm-linux-gnueabihf/6.3.0/../../../../include/c++/6.3.0/bits/basic_string.h:297:6
	cmp	r6, #0
	beq	.LBB0_8
.Ltmp58:
@ BB#5:
	@DEBUG_VALUE: _S_copy:__n <- %R6
	@DEBUG_VALUE: assign:__c2 <- %R5
	@DEBUG_VALUE: _S_copy:__s <- %R5
	@DEBUG_VALUE: _S_copy_chars:__k1 <- %R5
	@DEBUG_VALUE: _M_construct<const char *>:__beg <- %R5
	@DEBUG_VALUE: _M_construct_aux<const char *>:__beg <- %R5
	@DEBUG_VALUE: _M_construct<const char *>:__beg <- %R5
	@DEBUG_VALUE: length:__s <- %R5
	@DEBUG_VALUE: basic_string:__s <- %R5
	@DEBUG_VALUE: setup:context <- %R4
	cmp	r6, #1
	bne	.LBB0_7
.Ltmp59:
@ BB#6:
	@DEBUG_VALUE: _S_copy:__n <- %R6
	@DEBUG_VALUE: assign:__c2 <- %R5
	@DEBUG_VALUE: _S_copy:__s <- %R5
	@DEBUG_VALUE: _S_copy_chars:__k1 <- %R5
	@DEBUG_VALUE: _M_construct<const char *>:__beg <- %R5
	@DEBUG_VALUE: _M_construct_aux<const char *>:__beg <- %R5
	@DEBUG_VALUE: _M_construct<const char *>:__beg <- %R5
	@DEBUG_VALUE: length:__s <- %R5
	@DEBUG_VALUE: basic_string:__s <- %R5
	@DEBUG_VALUE: setup:context <- %R4
	.loc	26 243 16               @ /usr/bin/../lib/gcc/arm-linux-gnueabihf/6.3.0/../../../../include/c++/6.3.0/bits/char_traits.h:243:16
	ldrb	r1, [r5]
.Ltmp60:
	@DEBUG_VALUE: _S_copy_chars:__p <- %R0
	.loc	26 243 14 is_stmt 0     @ /usr/bin/../lib/gcc/arm-linux-gnueabihf/6.3.0/../../../../include/c++/6.3.0/bits/char_traits.h:243:14
	strb	r1, [r0]
	b	.LBB0_8
.Ltmp61:
.LBB0_7:
	@DEBUG_VALUE: _S_copy:__n <- %R6
	@DEBUG_VALUE: assign:__c2 <- %R5
	@DEBUG_VALUE: _S_copy:__s <- %R5
	@DEBUG_VALUE: _S_copy_chars:__k1 <- %R5
	@DEBUG_VALUE: _M_construct<const char *>:__beg <- %R5
	@DEBUG_VALUE: _M_construct_aux<const char *>:__beg <- %R5
	@DEBUG_VALUE: _M_construct<const char *>:__beg <- %R5
	@DEBUG_VALUE: length:__s <- %R5
	@DEBUG_VALUE: basic_string:__s <- %R5
	@DEBUG_VALUE: setup:context <- %R4
	.loc	26 290 33 is_stmt 1     @ /usr/bin/../lib/gcc/arm-linux-gnueabihf/6.3.0/../../../../include/c++/6.3.0/bits/char_traits.h:290:33
	mov	r1, r5
	mov	r2, r6
	bl	memcpy
.Ltmp62:
.LBB0_8:                                @ %._crit_edge.i.i.i.i17
	@DEBUG_VALUE: _S_copy:__n <- %R6
	@DEBUG_VALUE: assign:__c2 <- %R5
	@DEBUG_VALUE: _S_copy:__s <- %R5
	@DEBUG_VALUE: _S_copy_chars:__k1 <- %R5
	@DEBUG_VALUE: _M_construct<const char *>:__beg <- %R5
	@DEBUG_VALUE: _M_construct_aux<const char *>:__beg <- %R5
	@DEBUG_VALUE: _M_construct<const char *>:__beg <- %R5
	@DEBUG_VALUE: length:__s <- %R5
	@DEBUG_VALUE: basic_string:__s <- %R5
	@DEBUG_VALUE: setup:context <- %R4
	.loc	47 232 16               @ /usr/bin/../lib/gcc/arm-linux-gnueabihf/6.3.0/../../../../include/c++/6.3.0/bits/basic_string.tcc:232:16
	ldr	r0, [r11, #-40]
.Ltmp63:
	@DEBUG_VALUE: _M_set_length:__n <- %R0
	@DEBUG_VALUE: _M_length:__length <- %R0
	@DEBUG_VALUE: _M_construct<const char *>:__dnew <- %R0
	.loc	26 243 14               @ /usr/bin/../lib/gcc/arm-linux-gnueabihf/6.3.0/../../../../include/c++/6.3.0/bits/char_traits.h:243:14
	mov	r2, #0
.Ltmp64:
	.loc	25 132 26               @ /usr/bin/../lib/gcc/arm-linux-gnueabihf/6.3.0/../../../../include/c++/6.3.0/bits/basic_string.h:132:26
	str	r0, [r11, #-60]
	sub	r3, r11, #88
.Ltmp65:
	@DEBUG_VALUE: _M_data:this <- %R3
	@DEBUG_VALUE: _M_length:this <- %R3
	@DEBUG_VALUE: _M_set_length:__n <- 3
	@DEBUG_VALUE: _M_set_length:this <- %R3
	@DEBUG_VALUE: _M_data:this <- %R3
	@DEBUG_VALUE: _M_construct<const char *>:__dnew <- 3
	@DEBUG_VALUE: _M_construct<const char *>:this <- %R3
	@DEBUG_VALUE: _M_construct_aux<const char *>:this <- %R3
	@DEBUG_VALUE: _M_construct<const char *>:this <- %R3
	@DEBUG_VALUE: _S_copy_chars:__p <- %R5
	@DEBUG_VALUE: _S_copy:__d <- %R5
	@DEBUG_VALUE: _M_local_data:this <- %R3
	.loc	25 136 28               @ /usr/bin/../lib/gcc/arm-linux-gnueabihf/6.3.0/../../../../include/c++/6.3.0/bits/basic_string.h:136:28
	ldr	r1, [r11, #-64]
.Ltmp66:
	.loc	25 142 51               @ /usr/bin/../lib/gcc/arm-linux-gnueabihf/6.3.0/../../../../include/c++/6.3.0/bits/basic_string.h:142:51
	add	r5, r3, #8
.Ltmp67:
	.loc	26 243 14               @ /usr/bin/../lib/gcc/arm-linux-gnueabihf/6.3.0/../../../../include/c++/6.3.0/bits/char_traits.h:243:14
	strb	r2, [r1, r0]
.Ltmp68:
	.loc	26 290 33               @ /usr/bin/../lib/gcc/arm-linux-gnueabihf/6.3.0/../../../../include/c++/6.3.0/bits/char_traits.h:290:33
	mov	r0, #105
.Ltmp69:
	@DEBUG_VALUE: _S_copy:__n <- 3
	.loc	25 110 25               @ /usr/bin/../lib/gcc/arm-linux-gnueabihf/6.3.0/../../../../include/c++/6.3.0/bits/basic_string.h:110:25
	str	r5, [r11, #-88]
.Ltmp70:
	.loc	26 290 33               @ /usr/bin/../lib/gcc/arm-linux-gnueabihf/6.3.0/../../../../include/c++/6.3.0/bits/char_traits.h:290:33
	strb	r0, [r11, #-78]
	movw	r0, #30055
	strh	r0, [r11, #-80]
	mov	r0, #3
.Ltmp71:
	@DEBUG_VALUE: _M_length:__length <- 3
	.loc	25 132 26               @ /usr/bin/../lib/gcc/arm-linux-gnueabihf/6.3.0/../../../../include/c++/6.3.0/bits/basic_string.h:132:26
	str	r0, [r11, #-84]
.Ltmp72:
	.loc	26 243 14               @ /usr/bin/../lib/gcc/arm-linux-gnueabihf/6.3.0/../../../../include/c++/6.3.0/bits/char_traits.h:243:14
	strb	r2, [r11, #-77]
.Ltmp73:
	.loc	1 70 6 discriminator 2  @ /root/Bela/projects/haid_01_button_C/render.cpp:70:6
.Ltmp3:
	movw	r0, :lower16:gui
	sub	r1, r11, #64
.Ltmp74:
	@DEBUG_VALUE: _M_data:this <- %R1
	@DEBUG_VALUE: _M_length:this <- %R1
	movt	r0, :upper16:gui
	movw	r2, #5555
	bl	_ZN3Gui5setupENSt7__cxx1112basic_stringIcSt11char_traitsIcESaIcEEEjS5_
.Ltmp75:
.Ltmp4:
.Ltmp76:
@ BB#9:
	@DEBUG_VALUE: _S_copy:__n <- %R6
	@DEBUG_VALUE: setup:context <- %R4
	.loc	25 136 28               @ /usr/bin/../lib/gcc/arm-linux-gnueabihf/6.3.0/../../../../include/c++/6.3.0/bits/basic_string.h:136:28
	ldr	r0, [r11, #-88]
.Ltmp77:
	@DEBUG_VALUE: deallocate:__p <- %R0
	@DEBUG_VALUE: deallocate:__p <- %R0
	.loc	25 180 6                @ /usr/bin/../lib/gcc/arm-linux-gnueabihf/6.3.0/../../../../include/c++/6.3.0/bits/basic_string.h:180:6
	cmp	r0, r5
	beq	.LBB0_11
.Ltmp78:
@ BB#10:
	@DEBUG_VALUE: deallocate:__p <- %R0
	@DEBUG_VALUE: deallocate:__p <- %R0
	@DEBUG_VALUE: _S_copy:__n <- %R6
	@DEBUG_VALUE: setup:context <- %R4
	.loc	5 110 9                 @ /usr/bin/../lib/gcc/arm-linux-gnueabihf/6.3.0/../../../../include/c++/6.3.0/ext/new_allocator.h:110:9
	bl	_ZdlPv
.Ltmp79:
.LBB0_11:                               @ %_ZNSt7__cxx1112basic_stringIcSt11char_traitsIcESaIcEED2Ev.exit22
	@DEBUG_VALUE: _S_copy:__n <- %R6
	@DEBUG_VALUE: setup:context <- %R4
	.loc	25 136 28               @ /usr/bin/../lib/gcc/arm-linux-gnueabihf/6.3.0/../../../../include/c++/6.3.0/bits/basic_string.h:136:28
	ldr	r0, [r11, #-64]
.Ltmp80:
	@DEBUG_VALUE: deallocate:__p <- %R0
	@DEBUG_VALUE: deallocate:__p <- %R0
	.loc	25 180 6                @ /usr/bin/../lib/gcc/arm-linux-gnueabihf/6.3.0/../../../../include/c++/6.3.0/bits/basic_string.h:180:6
	cmp	r0, r7
	beq	.LBB0_13
.Ltmp81:
@ BB#12:
	@DEBUG_VALUE: deallocate:__p <- %R0
	@DEBUG_VALUE: deallocate:__p <- %R0
	@DEBUG_VALUE: _S_copy:__n <- %R6
	@DEBUG_VALUE: setup:context <- %R4
	.loc	5 110 9                 @ /usr/bin/../lib/gcc/arm-linux-gnueabihf/6.3.0/../../../../include/c++/6.3.0/ext/new_allocator.h:110:9
	bl	_ZdlPv
.Ltmp82:
.LBB0_13:                               @ %_ZNSt7__cxx1112basic_stringIcSt11char_traitsIcESaIcEED2Ev.exit23
	@DEBUG_VALUE: _S_copy:__n <- %R6
	@DEBUG_VALUE: setup:context <- %R4
	.loc	26 290 33               @ /usr/bin/../lib/gcc/arm-linux-gnueabihf/6.3.0/../../../../include/c++/6.3.0/bits/char_traits.h:290:33
	movw	r0, #28530
	add	r2, sp, #96
.Ltmp83:
	@DEBUG_VALUE: _M_data:this <- %R2
	@DEBUG_VALUE: _M_length:this <- %R2
	@DEBUG_VALUE: _M_set_length:__n <- 8
	@DEBUG_VALUE: _M_set_length:this <- %R2
	@DEBUG_VALUE: _M_data:this <- %R2
	@DEBUG_VALUE: _M_construct<const char *>:__dnew <- 8
	@DEBUG_VALUE: _M_construct<const char *>:this <- %R2
	@DEBUG_VALUE: _M_construct_aux<const char *>:this <- %R2
	@DEBUG_VALUE: _M_construct<const char *>:this <- %R2
	@DEBUG_VALUE: _M_local_data:this <- %R2
	movt	r0, #29548
.Ltmp84:
	@DEBUG_VALUE: _S_copy:__n <- 8
	.loc	25 142 51               @ /usr/bin/../lib/gcc/arm-linux-gnueabihf/6.3.0/../../../../include/c++/6.3.0/bits/basic_string.h:142:51
	add	r6, r2, #8
.Ltmp85:
	.loc	25 110 25               @ /usr/bin/../lib/gcc/arm-linux-gnueabihf/6.3.0/../../../../include/c++/6.3.0/bits/basic_string.h:110:25
	str	r6, [sp, #96]
.Ltmp86:
	.loc	26 290 33               @ /usr/bin/../lib/gcc/arm-linux-gnueabihf/6.3.0/../../../../include/c++/6.3.0/bits/char_traits.h:290:33
	str	r0, [sp, #108]
	movw	r0, #28483
	movt	r0, #29806
	str	r0, [sp, #104]
	mov	r0, #8
.Ltmp87:
	@DEBUG_VALUE: _M_length:__length <- 8
	.loc	25 132 26               @ /usr/bin/../lib/gcc/arm-linux-gnueabihf/6.3.0/../../../../include/c++/6.3.0/bits/basic_string.h:132:26
	str	r0, [sp, #100]
.Ltmp88:
	.loc	26 243 14               @ /usr/bin/../lib/gcc/arm-linux-gnueabihf/6.3.0/../../../../include/c++/6.3.0/bits/char_traits.h:243:14
	mov	r0, #0
	strb	r0, [sp, #112]
.Ltmp89:
	.loc	1 72 13 discriminator 1 @ /root/Bela/projects/haid_01_button_C/render.cpp:72:13
.Ltmp6:
	movw	r0, :lower16:.L_MergedGlobals.3
	movw	r1, :lower16:gui
	movt	r0, :upper16:.L_MergedGlobals.3
	add	r5, r0, #44
	movt	r1, :upper16:gui
	mov	r0, r5
	bl	_ZN13GuiController5setupEP3GuiNSt7__cxx1112basic_stringIcSt11char_traitsIcESaIcEEE
.Ltmp90:
.Ltmp7:
.Ltmp91:
@ BB#14:
	@DEBUG_VALUE: setup:context <- %R4
	.loc	25 136 28               @ /usr/bin/../lib/gcc/arm-linux-gnueabihf/6.3.0/../../../../include/c++/6.3.0/bits/basic_string.h:136:28
	ldr	r0, [sp, #96]
.Ltmp92:
	@DEBUG_VALUE: deallocate:__p <- %R0
	@DEBUG_VALUE: deallocate:__p <- %R0
	.loc	25 180 6                @ /usr/bin/../lib/gcc/arm-linux-gnueabihf/6.3.0/../../../../include/c++/6.3.0/bits/basic_string.h:180:6
	cmp	r0, r6
	beq	.LBB0_16
.Ltmp93:
@ BB#15:
	@DEBUG_VALUE: deallocate:__p <- %R0
	@DEBUG_VALUE: deallocate:__p <- %R0
	@DEBUG_VALUE: setup:context <- %R4
	.loc	5 110 9                 @ /usr/bin/../lib/gcc/arm-linux-gnueabihf/6.3.0/../../../../include/c++/6.3.0/ext/new_allocator.h:110:9
	bl	_ZdlPv
.Ltmp94:
.LBB0_16:                               @ %_ZNSt7__cxx1112basic_stringIcSt11char_traitsIcESaIcEED2Ev.exit32
	@DEBUG_VALUE: setup:context <- %R4
	.loc	1 76 102 discriminator 1 @ /root/Bela/projects/haid_01_button_C/render.cpp:76:102
	vldr	s4, [r8, #32]
.Ltmp95:
	.loc	26 290 33               @ /usr/bin/../lib/gcc/arm-linux-gnueabihf/6.3.0/../../../../include/c++/6.3.0/bits/char_traits.h:290:33
	movw	r0, :lower16:.L.str.6
.Ltmp96:
	.loc	1 76 77 discriminator 1 @ /root/Bela/projects/haid_01_button_C/render.cpp:76:77
	vldr	s2, [r8, #36]
.Ltmp97:
	.loc	26 290 33               @ /usr/bin/../lib/gcc/arm-linux-gnueabihf/6.3.0/../../../../include/c++/6.3.0/bits/char_traits.h:290:33
	movt	r0, :upper16:.L.str.6
	add	r2, r0, #7
	add	r1, sp, #72
.Ltmp98:
	@DEBUG_VALUE: _M_data:this <- %R1
	@DEBUG_VALUE: _M_length:this <- %R1
	@DEBUG_VALUE: _M_set_length:__n <- 15
	@DEBUG_VALUE: _M_set_length:this <- %R1
	@DEBUG_VALUE: _M_data:this <- %R1
	@DEBUG_VALUE: _M_construct<const char *>:__dnew <- 15
	@DEBUG_VALUE: _M_construct<const char *>:this <- %R1
	@DEBUG_VALUE: _M_construct_aux<const char *>:this <- %R1
	@DEBUG_VALUE: _M_construct<const char *>:this <- %R1
	@DEBUG_VALUE: _S_copy_chars:__p <- %R6
	@DEBUG_VALUE: _S_copy:__d <- %R6
	@DEBUG_VALUE: _M_local_data:this <- %R1
	.loc	1 76 100 discriminator 1 @ /root/Bela/projects/haid_01_button_C/render.cpp:76:100
	vsub.f32	d0, d1, d2
.Ltmp99:
	.loc	26 290 33               @ /usr/bin/../lib/gcc/arm-linux-gnueabihf/6.3.0/../../../../include/c++/6.3.0/bits/char_traits.h:290:33
	vldr	d16, [r0]
	vld1.8	{d17}, [r2]
	add	r0, r1, #15
.Ltmp100:
	.loc	25 142 51               @ /usr/bin/../lib/gcc/arm-linux-gnueabihf/6.3.0/../../../../include/c++/6.3.0/bits/basic_string.h:142:51
	add	r6, r1, #8
.Ltmp101:
	.loc	1 76 38 discriminator 1 @ /root/Bela/projects/haid_01_button_C/render.cpp:76:38
	vmov.f32	d3, #1.000000e+00
.Ltmp102:
	.loc	25 110 25               @ /usr/bin/../lib/gcc/arm-linux-gnueabihf/6.3.0/../../../../include/c++/6.3.0/bits/basic_string.h:110:25
	str	r6, [sp, #72]
.Ltmp103:
	@DEBUG_VALUE: _S_copy:__n <- 15
	.loc	1 76 75 discriminator 1 @ /root/Bela/projects/haid_01_button_C/render.cpp:76:75
	vmov.f64	d8, #5.000000e-01
.Ltmp104:
	.loc	26 290 33               @ /usr/bin/../lib/gcc/arm-linux-gnueabihf/6.3.0/../../../../include/c++/6.3.0/bits/char_traits.h:290:33
	vst1.8	{d17}, [r0]
	mov	r0, #15
.Ltmp105:
	@DEBUG_VALUE: _M_length:__length <- 15
	vstr	d16, [sp, #80]
.Ltmp106:
	.loc	1 76 76 discriminator 1 @ /root/Bela/projects/haid_01_button_C/render.cpp:76:76
	vcvt.f64.f32	d16, s0
.Ltmp107:
	.loc	25 132 26               @ /usr/bin/../lib/gcc/arm-linux-gnueabihf/6.3.0/../../../../include/c++/6.3.0/bits/basic_string.h:132:26
	str	r0, [sp, #76]
	mov	r0, #0
.Ltmp108:
	.loc	26 243 14               @ /usr/bin/../lib/gcc/arm-linux-gnueabihf/6.3.0/../../../../include/c++/6.3.0/bits/char_traits.h:243:14
	strb	r0, [sp, #95]
.Ltmp109:
	.loc	1 76 75 discriminator 1 @ /root/Bela/projects/haid_01_button_C/render.cpp:76:75
	vmul.f64	d16, d16, d8
	.loc	1 76 71 is_stmt 0 discriminator 1 @ /root/Bela/projects/haid_01_button_C/render.cpp:76:71
	vcvt.s32.f64	s0, d16
	.loc	1 76 38 discriminator 1 @ /root/Bela/projects/haid_01_button_C/render.cpp:76:38
.Ltmp9:
	.loc	1 76 66 discriminator 1 @ /root/Bela/projects/haid_01_button_C/render.cpp:76:66
	vcvt.f32.s32	d0, d0
	.loc	1 76 38 discriminator 1 @ /root/Bela/projects/haid_01_button_C/render.cpp:76:38
                                        @ kill: %S2<def> %S2<kill> %D1<kill>
	mov	r0, r5
	vmov.f32	s3, s6
                                        @ kill: %S0<def> %S0<kill> %D0<kill>
	vmov.f32	s1, s4
	bl	_ZN13GuiController9addSliderENSt7__cxx1112basic_stringIcSt11char_traitsIcESaIcEEEffff
.Ltmp110:
.Ltmp10:
.Ltmp111:
	@DEBUG_VALUE: _S_copy:__s <- %R0
@ BB#17:
	@DEBUG_VALUE: _S_copy:__s <- %R0
	@DEBUG_VALUE: setup:context <- %R4
	.loc	1 76 25 discriminator 2 @ /root/Bela/projects/haid_01_button_C/render.cpp:76:25
	str	r0, [r8, #16]
.Ltmp112:
	.loc	25 136 28 is_stmt 1     @ /usr/bin/../lib/gcc/arm-linux-gnueabihf/6.3.0/../../../../include/c++/6.3.0/bits/basic_string.h:136:28
	ldr	r0, [sp, #72]
.Ltmp113:
	@DEBUG_VALUE: deallocate:__p <- %R0
	@DEBUG_VALUE: deallocate:__p <- %R0
	.loc	25 180 6                @ /usr/bin/../lib/gcc/arm-linux-gnueabihf/6.3.0/../../../../include/c++/6.3.0/bits/basic_string.h:180:6
	cmp	r0, r6
	beq	.LBB0_19
.Ltmp114:
@ BB#18:
	@DEBUG_VALUE: deallocate:__p <- %R0
	@DEBUG_VALUE: deallocate:__p <- %R0
	@DEBUG_VALUE: setup:context <- %R4
	.loc	5 110 9                 @ /usr/bin/../lib/gcc/arm-linux-gnueabihf/6.3.0/../../../../include/c++/6.3.0/ext/new_allocator.h:110:9
	bl	_ZdlPv
.Ltmp115:
.LBB0_19:                               @ %_ZNSt7__cxx1112basic_stringIcSt11char_traitsIcESaIcEED2Ev.exit40
	@DEBUG_VALUE: setup:context <- %R4
	add	r0, sp, #48
.Ltmp116:
	@DEBUG_VALUE: _M_construct<const char *>:this <- %R0
	@DEBUG_VALUE: _M_construct_aux<const char *>:this <- %R0
	@DEBUG_VALUE: _M_construct<const char *>:this <- %R0
	@DEBUG_VALUE: _M_local_data:this <- %R0
	.loc	47 215 12               @ /usr/bin/../lib/gcc/arm-linux-gnueabihf/6.3.0/../../../../include/c++/6.3.0/bits/basic_string.tcc:215:12
	mov	r1, #16
.Ltmp117:
	@DEBUG_VALUE: _M_construct<const char *>:__dnew <- 16
	.loc	25 142 51               @ /usr/bin/../lib/gcc/arm-linux-gnueabihf/6.3.0/../../../../include/c++/6.3.0/bits/basic_string.h:142:51
	add	r6, r0, #8
.Ltmp118:
	.loc	25 110 25               @ /usr/bin/../lib/gcc/arm-linux-gnueabihf/6.3.0/../../../../include/c++/6.3.0/bits/basic_string.h:110:25
	str	r6, [sp, #48]
.Ltmp119:
	.loc	47 215 12               @ /usr/bin/../lib/gcc/arm-linux-gnueabihf/6.3.0/../../../../include/c++/6.3.0/bits/basic_string.tcc:215:12
	str	r1, [r11, #-36]
.Ltmp120:
	.loc	47 219 14               @ /usr/bin/../lib/gcc/arm-linux-gnueabihf/6.3.0/../../../../include/c++/6.3.0/bits/basic_string.tcc:219:14
.Ltmp12:
	sub	r1, r11, #36
.Ltmp121:
	@DEBUG_VALUE: _M_construct<const char *>:__dnew <- [%R1+0]
	mov	r2, #0
	mov	r7, #0
	bl	_ZNSt7__cxx1112basic_stringIcSt11char_traitsIcESaIcEE9_M_createERjj
.Ltmp122:
.Ltmp13:
.Ltmp123:
@ BB#20:                                @ %.noexc46
	@DEBUG_VALUE: setup:context <- %R4
	.loc	26 290 33               @ /usr/bin/../lib/gcc/arm-linux-gnueabihf/6.3.0/../../../../include/c++/6.3.0/bits/char_traits.h:290:33
	movw	r1, :lower16:.L.str.7
.Ltmp124:
	.loc	47 220 18               @ /usr/bin/../lib/gcc/arm-linux-gnueabihf/6.3.0/../../../../include/c++/6.3.0/bits/basic_string.tcc:220:18
	ldr	r2, [r11, #-36]
.Ltmp125:
	@DEBUG_VALUE: _M_capacity:__capacity <- %R2
	@DEBUG_VALUE: _M_set_length:__n <- %R2
	@DEBUG_VALUE: _M_length:__length <- %R2
	@DEBUG_VALUE: _M_construct<const char *>:__dnew <- %R2
	.loc	26 290 33               @ /usr/bin/../lib/gcc/arm-linux-gnueabihf/6.3.0/../../../../include/c++/6.3.0/bits/char_traits.h:290:33
	movt	r1, :upper16:.L.str.7
	vld1.64	{d16, d17}, [r1]
	add	r1, sp, #48
.Ltmp126:
	@DEBUG_VALUE: _M_data:this <- %R1
	@DEBUG_VALUE: _M_length:this <- %R1
	@DEBUG_VALUE: _M_set_length:this <- %R1
	@DEBUG_VALUE: _M_data:this <- %R1
	@DEBUG_VALUE: _M_capacity:this <- %R1
	@DEBUG_VALUE: _M_data:this <- %R1
	.loc	1 77 40 discriminator 1 @ /root/Bela/projects/haid_01_button_C/render.cpp:77:40
	vmov.i32	d1, #0x0
.Ltmp127:
	.loc	25 128 26               @ /usr/bin/../lib/gcc/arm-linux-gnueabihf/6.3.0/../../../../include/c++/6.3.0/bits/basic_string.h:128:26
	str	r0, [sp, #48]
.Ltmp128:
	@DEBUG_VALUE: _M_data:__p <- %R0
	.loc	25 160 31               @ /usr/bin/../lib/gcc/arm-linux-gnueabihf/6.3.0/../../../../include/c++/6.3.0/bits/basic_string.h:160:31
	str	r2, [sp, #56]
.Ltmp129:
	@DEBUG_VALUE: _S_copy:__d <- %R0
	@DEBUG_VALUE: _S_copy:__n <- 16
	.loc	26 290 33               @ /usr/bin/../lib/gcc/arm-linux-gnueabihf/6.3.0/../../../../include/c++/6.3.0/bits/char_traits.h:290:33
	vst1.8	{d16, d17}, [r0]
.Ltmp130:
	.loc	25 132 26               @ /usr/bin/../lib/gcc/arm-linux-gnueabihf/6.3.0/../../../../include/c++/6.3.0/bits/basic_string.h:132:26
	str	r2, [sp, #52]
.Ltmp131:
	.loc	25 136 28               @ /usr/bin/../lib/gcc/arm-linux-gnueabihf/6.3.0/../../../../include/c++/6.3.0/bits/basic_string.h:136:28
	ldr	r0, [sp, #48]
.Ltmp132:
	.loc	1 77 40 discriminator 1 @ /root/Bela/projects/haid_01_button_C/render.cpp:77:40
	vldr	s4, .LCPI0_0
.Ltmp133:
	.loc	26 243 14               @ /usr/bin/../lib/gcc/arm-linux-gnueabihf/6.3.0/../../../../include/c++/6.3.0/bits/char_traits.h:243:14
	strb	r7, [r0, r2]
.Ltmp134:
	.loc	1 77 40 discriminator 1 @ /root/Bela/projects/haid_01_button_C/render.cpp:77:40
.Ltmp15:
	vmov.f32	d0, #1.000000e+00
	mov	r0, r5
	vmov.f32	s1, s2
	vmov.f32	d1, #1.000000e+00
	vmov.f32	s3, s4
	bl	_ZN13GuiController9addSliderENSt7__cxx1112basic_stringIcSt11char_traitsIcESaIcEEEffff
.Ltmp135:
.Ltmp16:
.Ltmp136:
	@DEBUG_VALUE: _S_copy:__s <- %R1
@ BB#21:
	@DEBUG_VALUE: _S_copy:__s <- %R1
	@DEBUG_VALUE: setup:context <- %R4
	.loc	1 77 27 is_stmt 0 discriminator 2 @ /root/Bela/projects/haid_01_button_C/render.cpp:77:27
	str	r0, [r8, #20]
.Ltmp137:
	.loc	25 136 28 is_stmt 1     @ /usr/bin/../lib/gcc/arm-linux-gnueabihf/6.3.0/../../../../include/c++/6.3.0/bits/basic_string.h:136:28
	ldr	r0, [sp, #48]
.Ltmp138:
	@DEBUG_VALUE: deallocate:__p <- %R0
	@DEBUG_VALUE: deallocate:__p <- %R0
	.loc	25 180 6                @ /usr/bin/../lib/gcc/arm-linux-gnueabihf/6.3.0/../../../../include/c++/6.3.0/bits/basic_string.h:180:6
	cmp	r0, r6
	beq	.LBB0_23
.Ltmp139:
@ BB#22:
	@DEBUG_VALUE: deallocate:__p <- %R0
	@DEBUG_VALUE: deallocate:__p <- %R0
	@DEBUG_VALUE: _S_copy:__s <- %R1
	@DEBUG_VALUE: setup:context <- %R4
	.loc	5 110 9                 @ /usr/bin/../lib/gcc/arm-linux-gnueabihf/6.3.0/../../../../include/c++/6.3.0/ext/new_allocator.h:110:9
	bl	_ZdlPv
.Ltmp140:
.LBB0_23:                               @ %_ZNSt7__cxx1112basic_stringIcSt11char_traitsIcESaIcEED2Ev.exit48
	@DEBUG_VALUE: setup:context <- %R4
	.loc	26 290 33               @ /usr/bin/../lib/gcc/arm-linux-gnueabihf/6.3.0/../../../../include/c++/6.3.0/bits/char_traits.h:290:33
	movw	r2, :lower16:.L.str.8
	add	r1, sp, #24
.Ltmp141:
	@DEBUG_VALUE: _M_data:this <- %R1
	@DEBUG_VALUE: _M_length:this <- %R1
	@DEBUG_VALUE: _M_set_length:__n <- 15
	@DEBUG_VALUE: _M_set_length:this <- %R1
	@DEBUG_VALUE: _M_data:this <- %R1
	@DEBUG_VALUE: _M_construct<const char *>:__dnew <- 15
	@DEBUG_VALUE: _M_construct<const char *>:this <- %R1
	@DEBUG_VALUE: _M_construct_aux<const char *>:this <- %R1
	@DEBUG_VALUE: _M_construct<const char *>:this <- %R1
	@DEBUG_VALUE: _S_copy_chars:__p <- %R6
	@DEBUG_VALUE: _S_copy:__d <- %R6
	@DEBUG_VALUE: _M_local_data:this <- %R1
	movt	r2, :upper16:.L.str.8
	add	r3, r2, #7
.Ltmp142:
	.loc	25 142 51               @ /usr/bin/../lib/gcc/arm-linux-gnueabihf/6.3.0/../../../../include/c++/6.3.0/bits/basic_string.h:142:51
	add	r6, r1, #8
.Ltmp143:
	.loc	26 290 33               @ /usr/bin/../lib/gcc/arm-linux-gnueabihf/6.3.0/../../../../include/c++/6.3.0/bits/char_traits.h:290:33
	vldr	d17, [r2]
	vld1.8	{d16}, [r3]
	add	r3, r1, #15
	mov	r0, #0
	mov	r2, #15
.Ltmp144:
	.loc	25 110 25               @ /usr/bin/../lib/gcc/arm-linux-gnueabihf/6.3.0/../../../../include/c++/6.3.0/bits/basic_string.h:110:25
	str	r6, [sp, #24]
.Ltmp145:
	@DEBUG_VALUE: _S_copy:__n <- 15
	.loc	1 78 41 discriminator 1 @ /root/Bela/projects/haid_01_button_C/render.cpp:78:41
	vmov.i32	d1, #0x0
.Ltmp146:
	.loc	26 290 33               @ /usr/bin/../lib/gcc/arm-linux-gnueabihf/6.3.0/../../../../include/c++/6.3.0/bits/char_traits.h:290:33
	vst1.8	{d16}, [r3]
	vstr	d17, [sp, #32]
.Ltmp147:
	@DEBUG_VALUE: _M_length:__length <- 15
	.loc	25 132 26               @ /usr/bin/../lib/gcc/arm-linux-gnueabihf/6.3.0/../../../../include/c++/6.3.0/bits/basic_string.h:132:26
	str	r2, [sp, #28]
.Ltmp148:
	.loc	1 78 41 discriminator 1 @ /root/Bela/projects/haid_01_button_C/render.cpp:78:41
	vldr	s0, .LCPI0_1
	vldr	s4, .LCPI0_0
.Ltmp149:
	.loc	26 243 14               @ /usr/bin/../lib/gcc/arm-linux-gnueabihf/6.3.0/../../../../include/c++/6.3.0/bits/char_traits.h:243:14
	strb	r0, [sp, #47]
.Ltmp150:
	.loc	1 78 41 discriminator 1 @ /root/Bela/projects/haid_01_button_C/render.cpp:78:41
.Ltmp18:
	vmov.f32	s1, s2
	mov	r0, r5
	vmov.f32	d1, #5.000000e-01
	vmov.f32	s3, s4
	bl	_ZN13GuiController9addSliderENSt7__cxx1112basic_stringIcSt11char_traitsIcESaIcEEEffff
.Ltmp151:
.Ltmp19:
.Ltmp152:
	@DEBUG_VALUE: _S_copy:__s <- %R2
@ BB#24:
	@DEBUG_VALUE: _S_copy:__s <- %R2
	@DEBUG_VALUE: setup:context <- %R4
	.loc	1 78 28 is_stmt 0 discriminator 2 @ /root/Bela/projects/haid_01_button_C/render.cpp:78:28
	str	r0, [r8, #24]
.Ltmp153:
	.loc	25 136 28 is_stmt 1     @ /usr/bin/../lib/gcc/arm-linux-gnueabihf/6.3.0/../../../../include/c++/6.3.0/bits/basic_string.h:136:28
	ldr	r0, [sp, #24]
.Ltmp154:
	@DEBUG_VALUE: deallocate:__p <- %R0
	@DEBUG_VALUE: deallocate:__p <- %R0
	.loc	25 180 6                @ /usr/bin/../lib/gcc/arm-linux-gnueabihf/6.3.0/../../../../include/c++/6.3.0/bits/basic_string.h:180:6
	cmp	r0, r6
	beq	.LBB0_26
.Ltmp155:
@ BB#25:
	@DEBUG_VALUE: deallocate:__p <- %R0
	@DEBUG_VALUE: deallocate:__p <- %R0
	@DEBUG_VALUE: _S_copy:__s <- %R2
	@DEBUG_VALUE: setup:context <- %R4
	.loc	5 110 9                 @ /usr/bin/../lib/gcc/arm-linux-gnueabihf/6.3.0/../../../../include/c++/6.3.0/ext/new_allocator.h:110:9
	bl	_ZdlPv
.Ltmp156:
.LBB0_26:                               @ %_ZNSt7__cxx1112basic_stringIcSt11char_traitsIcESaIcEED2Ev.exit56
	@DEBUG_VALUE: setup:context <- %R4
	.loc	1 79 93 discriminator 1 @ /root/Bela/projects/haid_01_button_C/render.cpp:79:93
	vldr	s4, [r8, #48]
.Ltmp157:
	.loc	26 290 33               @ /usr/bin/../lib/gcc/arm-linux-gnueabihf/6.3.0/../../../../include/c++/6.3.0/bits/char_traits.h:290:33
	movw	r0, :lower16:.L.str.9
.Ltmp158:
	.loc	1 79 72 discriminator 1 @ /root/Bela/projects/haid_01_button_C/render.cpp:79:72
	vldr	s2, [r8, #52]
.Ltmp159:
	.loc	26 290 33               @ /usr/bin/../lib/gcc/arm-linux-gnueabihf/6.3.0/../../../../include/c++/6.3.0/bits/char_traits.h:290:33
	movt	r0, :upper16:.L.str.9
	add	r2, r0, #5
	mov	r1, sp
.Ltmp160:
	@DEBUG_VALUE: _M_data:this <- %R1
	@DEBUG_VALUE: _M_length:this <- %R1
	@DEBUG_VALUE: _M_set_length:__n <- 13
	@DEBUG_VALUE: _M_set_length:this <- %R1
	@DEBUG_VALUE: _M_data:this <- %R1
	@DEBUG_VALUE: _M_construct<const char *>:__dnew <- 13
	@DEBUG_VALUE: _M_construct<const char *>:this <- %R1
	@DEBUG_VALUE: _M_construct_aux<const char *>:this <- %R1
	@DEBUG_VALUE: _M_construct<const char *>:this <- %R1
	@DEBUG_VALUE: _S_copy_chars:__p <- %R6
	@DEBUG_VALUE: _S_copy:__d <- %R6
	@DEBUG_VALUE: _M_local_data:this <- %R1
	.loc	1 79 91 discriminator 1 @ /root/Bela/projects/haid_01_button_C/render.cpp:79:91
	vsub.f32	d0, d1, d2
.Ltmp161:
	.loc	26 290 33               @ /usr/bin/../lib/gcc/arm-linux-gnueabihf/6.3.0/../../../../include/c++/6.3.0/bits/char_traits.h:290:33
	vldr	d16, [r0]
	vld1.8	{d17}, [r2]
	add	r0, r1, #13
.Ltmp162:
	.loc	25 142 51               @ /usr/bin/../lib/gcc/arm-linux-gnueabihf/6.3.0/../../../../include/c++/6.3.0/bits/basic_string.h:142:51
	add	r6, r1, #8
.Ltmp163:
	.loc	1 79 34 discriminator 1 @ /root/Bela/projects/haid_01_button_C/render.cpp:79:34
	vmov.f32	d3, #1.000000e+00
.Ltmp164:
	.loc	25 110 25               @ /usr/bin/../lib/gcc/arm-linux-gnueabihf/6.3.0/../../../../include/c++/6.3.0/bits/basic_string.h:110:25
	str	r6, [sp]
.Ltmp165:
	@DEBUG_VALUE: _S_copy:__n <- 13
	.loc	26 290 33               @ /usr/bin/../lib/gcc/arm-linux-gnueabihf/6.3.0/../../../../include/c++/6.3.0/bits/char_traits.h:290:33
	vst1.8	{d17}, [r0]
	mov	r0, #13
.Ltmp166:
	@DEBUG_VALUE: _M_length:__length <- 13
	vstr	d16, [sp, #8]
.Ltmp167:
	.loc	1 79 71 discriminator 1 @ /root/Bela/projects/haid_01_button_C/render.cpp:79:71
	vcvt.f64.f32	d16, s0
.Ltmp168:
	.loc	25 132 26               @ /usr/bin/../lib/gcc/arm-linux-gnueabihf/6.3.0/../../../../include/c++/6.3.0/bits/basic_string.h:132:26
	str	r0, [sp, #4]
	mov	r0, #0
.Ltmp169:
	.loc	26 243 14               @ /usr/bin/../lib/gcc/arm-linux-gnueabihf/6.3.0/../../../../include/c++/6.3.0/bits/char_traits.h:243:14
	strb	r0, [sp, #21]
.Ltmp170:
	.loc	1 79 70 discriminator 1 @ /root/Bela/projects/haid_01_button_C/render.cpp:79:70
	vmul.f64	d16, d16, d8
	.loc	1 79 66 is_stmt 0 discriminator 1 @ /root/Bela/projects/haid_01_button_C/render.cpp:79:66
	vcvt.s32.f64	s0, d16
	.loc	1 79 34 discriminator 1 @ /root/Bela/projects/haid_01_button_C/render.cpp:79:34
.Ltmp21:
	.loc	1 79 61 discriminator 1 @ /root/Bela/projects/haid_01_button_C/render.cpp:79:61
	vcvt.f32.s32	d0, d0
	.loc	1 79 34 discriminator 1 @ /root/Bela/projects/haid_01_button_C/render.cpp:79:34
                                        @ kill: %S2<def> %S2<kill> %D1<kill>
	mov	r0, r5
	vmov.f32	s3, s6
                                        @ kill: %S0<def> %S0<kill> %D0<kill>
	vmov.f32	s1, s4
	bl	_ZN13GuiController9addSliderENSt7__cxx1112basic_stringIcSt11char_traitsIcESaIcEEEffff
.Ltmp171:
.Ltmp22:
.Ltmp172:
	@DEBUG_VALUE: _S_copy:__s <- %R0
@ BB#27:
	@DEBUG_VALUE: _S_copy:__s <- %R0
	@DEBUG_VALUE: setup:context <- %R4
	.loc	1 79 21 discriminator 2 @ /root/Bela/projects/haid_01_button_C/render.cpp:79:21
	str	r0, [r8, #28]
.Ltmp173:
	.loc	25 136 28 is_stmt 1     @ /usr/bin/../lib/gcc/arm-linux-gnueabihf/6.3.0/../../../../include/c++/6.3.0/bits/basic_string.h:136:28
	ldr	r0, [sp]
.Ltmp174:
	@DEBUG_VALUE: deallocate:__p <- %R0
	@DEBUG_VALUE: deallocate:__p <- %R0
	.loc	25 180 6                @ /usr/bin/../lib/gcc/arm-linux-gnueabihf/6.3.0/../../../../include/c++/6.3.0/bits/basic_string.h:180:6
	cmp	r0, r6
	beq	.LBB0_29
.Ltmp175:
@ BB#28:
	@DEBUG_VALUE: deallocate:__p <- %R0
	@DEBUG_VALUE: deallocate:__p <- %R0
	@DEBUG_VALUE: setup:context <- %R4
	.loc	5 110 9                 @ /usr/bin/../lib/gcc/arm-linux-gnueabihf/6.3.0/../../../../include/c++/6.3.0/ext/new_allocator.h:110:9
	bl	_ZdlPv
.Ltmp176:
.LBB0_29:                               @ %_ZNSt7__cxx1112basic_stringIcSt11char_traitsIcESaIcEED2Ev.exit49
	@DEBUG_VALUE: setup:context <- %R4
	@DEBUG_VALUE: pinMode:frame <- 0
	@DEBUG_VALUE: pinMode:mode <- 0
	@DEBUG_VALUE: pinMode:f <- 0
	.loc	24 1535 30 discriminator 1 @ ./include/Bela.h:1535:30
	ldr	r0, [r4, #52]
	.loc	24 1535 2 is_stmt 0 discriminator 1 @ ./include/Bela.h:1535:2
	cmp	r0, #0
	beq	.LBB0_32
.Ltmp177:
@ BB#30:                                @ %.lr.ph.i
	@DEBUG_VALUE: setup:context <- %R4
	.loc	1 82 22 is_stmt 1       @ /root/Bela/projects/haid_01_button_C/render.cpp:82:22
	ldr	r1, [r8, #8]
.Ltmp178:
	.loc	24 1537 30              @ ./include/Bela.h:1537:30
	mov	r2, #1
	.loc	24 1537 13 is_stmt 0    @ ./include/Bela.h:1537:13
	ldr	r0, [r4, #16]
	.loc	24 1537 30              @ ./include/Bela.h:1537:30
	lsl	r1, r2, r1
	mov	r2, #0
.Ltmp179:
.LBB0_31:                               @ =>This Inner Loop Header: Depth=1
	.loc	24 1537 24              @ ./include/Bela.h:1537:24
	ldr	r3, [r0, r2, lsl #2]
	orr	r3, r3, r1
	str	r3, [r0, r2, lsl #2]
.Ltmp180:
	.loc	24 1535 46 is_stmt 1 discriminator 2 @ ./include/Bela.h:1535:46
	add	r2, r2, #1
.Ltmp181:
	@DEBUG_VALUE: pinMode:f <- %R2
	.loc	24 1535 30 is_stmt 0 discriminator 1 @ ./include/Bela.h:1535:30
	ldr	r3, [r4, #52]
	.loc	24 1535 2 discriminator 1 @ ./include/Bela.h:1535:2
	cmp	r2, r3
	blo	.LBB0_31
.Ltmp182:
.LBB0_32:                               @ %_ZL7pinModeP11BelaContextiii.exit
	.loc	1 85 20 is_stmt 1       @ /root/Bela/projects/haid_01_button_C/render.cpp:85:20
	vldr	s0, [r8, #48]
	.loc	1 85 14 is_stmt 0       @ /root/Bela/projects/haid_01_button_C/render.cpp:85:14
	movw	r0, :lower16:.L_MergedGlobals.3
	.loc	1 85 38                 @ /root/Bela/projects/haid_01_button_C/render.cpp:85:38
	vldr	d17, .LCPI0_2
	.loc	1 85 14                 @ /root/Bela/projects/haid_01_button_C/render.cpp:85:14
	movt	r0, :upper16:.L_MergedGlobals.3
	.loc	1 85 20                 @ /root/Bela/projects/haid_01_button_C/render.cpp:85:20
	vcvt.f64.f32	d16, s0
	.loc	1 85 14                 @ /root/Bela/projects/haid_01_button_C/render.cpp:85:14
	mov	r1, #3
	.loc	1 85 38                 @ /root/Bela/projects/haid_01_button_C/render.cpp:85:38
	vmul.f64	d16, d16, d17
	.loc	1 85 20                 @ /root/Bela/projects/haid_01_button_C/render.cpp:85:20
	vcvt.f32.f64	s0, d16
	.loc	1 85 14                 @ /root/Bela/projects/haid_01_button_C/render.cpp:85:14
	vmov.f32	s1, s0
	.loc	1 85 81                 @ /root/Bela/projects/haid_01_button_C/render.cpp:85:81
	vldr	s2, [r4, #32]
	.loc	1 85 14                 @ /root/Bela/projects/haid_01_button_C/render.cpp:85:14
	bl	_ZN3ASR5setupEfffNS_8EnvStateE
	.loc	1 87 2 is_stmt 1        @ /root/Bela/projects/haid_01_button_C/render.cpp:87:2
	mov	r0, #1
	sub	sp, r11, #32
	vpop	{d8}
	pop	{r4, r5, r6, r7, r8, r10, r11, pc}
.LBB0_33:
.Ltmp183:
	@DEBUG_VALUE: _S_copy:__n <- %R6
	@DEBUG_VALUE: assign:__c2 <- %R5
	@DEBUG_VALUE: _S_copy:__s <- %R5
	@DEBUG_VALUE: _S_copy_chars:__k1 <- %R5
	@DEBUG_VALUE: _M_construct<const char *>:__beg <- %R5
	@DEBUG_VALUE: _M_construct_aux<const char *>:__beg <- %R5
	@DEBUG_VALUE: _M_construct<const char *>:__beg <- %R5
	@DEBUG_VALUE: length:__s <- %R5
	@DEBUG_VALUE: basic_string:__s <- %R5
	@DEBUG_VALUE: setup:context <- %R4
.Ltmp2:
	mov	lr, pc
	b	_Unwind_Resume
.Ltmp184:
.LBB0_34:
	@DEBUG_VALUE: _S_copy:__s <- %R0
	@DEBUG_VALUE: setup:context <- %R4
.Ltmp23:
	mov	r4, r0
.Ltmp185:
	.loc	25 136 28               @ /usr/bin/../lib/gcc/arm-linux-gnueabihf/6.3.0/../../../../include/c++/6.3.0/bits/basic_string.h:136:28
	ldr	r0, [sp]
.Ltmp186:
	b	.LBB0_40
.Ltmp187:
.LBB0_35:
	@DEBUG_VALUE: _S_copy:__s <- %R2
	@DEBUG_VALUE: setup:context <- %R4
.Ltmp20:
	mov	r4, r0
.Ltmp188:
	.loc	25 136 28 is_stmt 0     @ /usr/bin/../lib/gcc/arm-linux-gnueabihf/6.3.0/../../../../include/c++/6.3.0/bits/basic_string.h:136:28
	ldr	r0, [sp, #24]
	b	.LBB0_40
.Ltmp189:
.LBB0_36:
	@DEBUG_VALUE: _S_copy:__s <- %R1
	@DEBUG_VALUE: setup:context <- %R4
.Ltmp17:
	mov	r4, r0
.Ltmp190:
	.loc	25 136 28               @ /usr/bin/../lib/gcc/arm-linux-gnueabihf/6.3.0/../../../../include/c++/6.3.0/bits/basic_string.h:136:28
	ldr	r0, [sp, #48]
	b	.LBB0_40
.Ltmp191:
.LBB0_37:
	@DEBUG_VALUE: setup:context <- %R4
.Ltmp14:
	mov	lr, pc
	b	_Unwind_Resume
.Ltmp192:
.LBB0_38:
	@DEBUG_VALUE: _S_copy:__s <- %R0
	@DEBUG_VALUE: setup:context <- %R4
.Ltmp11:
	mov	r4, r0
.Ltmp193:
	.loc	25 136 28               @ /usr/bin/../lib/gcc/arm-linux-gnueabihf/6.3.0/../../../../include/c++/6.3.0/bits/basic_string.h:136:28
	ldr	r0, [sp, #72]
.Ltmp194:
	b	.LBB0_40
.Ltmp195:
.LBB0_39:
	@DEBUG_VALUE: setup:context <- %R4
.Ltmp8:
	mov	r4, r0
.Ltmp196:
	.loc	25 136 28               @ /usr/bin/../lib/gcc/arm-linux-gnueabihf/6.3.0/../../../../include/c++/6.3.0/bits/basic_string.h:136:28
	ldr	r0, [sp, #96]
.Ltmp197:
.LBB0_40:
	@DEBUG_VALUE: deallocate:__p <- %R0
	@DEBUG_VALUE: deallocate:__p <- %R0
	.loc	25 180 6 is_stmt 1      @ /usr/bin/../lib/gcc/arm-linux-gnueabihf/6.3.0/../../../../include/c++/6.3.0/bits/basic_string.h:180:6
	cmp	r0, r6
	bne	.LBB0_44
	b	.LBB0_45
.Ltmp198:
.LBB0_41:
	@DEBUG_VALUE: _S_copy:__n <- %R6
	@DEBUG_VALUE: setup:context <- %R4
.Ltmp5:
	mov	r4, r0
.Ltmp199:
	.loc	25 136 28               @ /usr/bin/../lib/gcc/arm-linux-gnueabihf/6.3.0/../../../../include/c++/6.3.0/bits/basic_string.h:136:28
	ldr	r0, [r11, #-88]
.Ltmp200:
	@DEBUG_VALUE: deallocate:__p <- %R0
	@DEBUG_VALUE: deallocate:__p <- %R0
	.loc	25 180 6                @ /usr/bin/../lib/gcc/arm-linux-gnueabihf/6.3.0/../../../../include/c++/6.3.0/bits/basic_string.h:180:6
	cmp	r0, r5
	beq	.LBB0_43
.Ltmp201:
@ BB#42:
	@DEBUG_VALUE: deallocate:__p <- %R0
	@DEBUG_VALUE: deallocate:__p <- %R0
	@DEBUG_VALUE: _S_copy:__n <- %R6
	.loc	5 110 9                 @ /usr/bin/../lib/gcc/arm-linux-gnueabihf/6.3.0/../../../../include/c++/6.3.0/ext/new_allocator.h:110:9
	bl	_ZdlPv
.Ltmp202:
.LBB0_43:                               @ %_ZNSt7__cxx1112basic_stringIcSt11char_traitsIcESaIcEED2Ev.exit41
	@DEBUG_VALUE: _S_copy:__n <- %R6
	.loc	25 136 28               @ /usr/bin/../lib/gcc/arm-linux-gnueabihf/6.3.0/../../../../include/c++/6.3.0/bits/basic_string.h:136:28
	ldr	r0, [r11, #-64]
.Ltmp203:
	@DEBUG_VALUE: deallocate:__p <- %R0
	@DEBUG_VALUE: deallocate:__p <- %R0
	.loc	25 180 6                @ /usr/bin/../lib/gcc/arm-linux-gnueabihf/6.3.0/../../../../include/c++/6.3.0/bits/basic_string.h:180:6
	cmp	r0, r7
	beq	.LBB0_45
.Ltmp204:
.LBB0_44:
	.loc	5 110 9                 @ /usr/bin/../lib/gcc/arm-linux-gnueabihf/6.3.0/../../../../include/c++/6.3.0/ext/new_allocator.h:110:9
	bl	_ZdlPv
.Ltmp205:
.LBB0_45:                               @ %_ZNSt7__cxx1112basic_stringIcSt11char_traitsIcESaIcEED2Ev.exit33
	mov	r0, r4
	mov	lr, pc
	b	_Unwind_Resume
	.p2align	3
@ BB#46:
.LCPI0_2:
	.long	3539053052              @ double 0.001
	.long	1062232653
.LCPI0_0:
	.long	981668463               @ float 0.00100000005
.LCPI0_1:
	.long	1041865114              @ float 0.150000006
.Lfunc_end0:
	.size	setup, .Lfunc_end0-setup
	.cfi_endproc
	.file	48 "/usr/bin/../lib/gcc/arm-linux-gnueabihf/6.3.0/../../../../include/c++/6.3.0/bits" "stl_iterator_base_types.h"
	.file	49 "/usr/bin/../lib/gcc/arm-linux-gnueabihf/6.3.0/../../../../include/c++/6.3.0/bits" "cpp_type_traits.h"
	.globl	__gxx_personality_v0
	.personality __gxx_personality_v0
	.handlerdata
	.p2align	2
GCC_except_table0:
.Lexception0:
	.byte	255                     @ @LPStart Encoding = omit
	.byte	0                       @ @TType Encoding = absptr
	.asciz	"\222\201\200"          @ @TType base offset
	.byte	3                       @ Call site Encoding = udata4
	.ascii	"\217\001"              @ Call site table length
	.long	.Lfunc_begin0-.Lfunc_begin0 @ >> Call Site 1 <<
	.long	.Ltmp0-.Lfunc_begin0    @   Call between .Lfunc_begin0 and .Ltmp0
	.long	0                       @     has no landing pad
	.byte	0                       @   On action: cleanup
	.long	.Ltmp0-.Lfunc_begin0    @ >> Call Site 2 <<
	.long	.Ltmp1-.Ltmp0           @   Call between .Ltmp0 and .Ltmp1
	.long	.Ltmp2-.Lfunc_begin0    @     jumps to .Ltmp2
	.byte	0                       @   On action: cleanup
	.long	.Ltmp1-.Lfunc_begin0    @ >> Call Site 3 <<
	.long	.Ltmp3-.Ltmp1           @   Call between .Ltmp1 and .Ltmp3
	.long	0                       @     has no landing pad
	.byte	0                       @   On action: cleanup
	.long	.Ltmp3-.Lfunc_begin0    @ >> Call Site 4 <<
	.long	.Ltmp4-.Ltmp3           @   Call between .Ltmp3 and .Ltmp4
	.long	.Ltmp5-.Lfunc_begin0    @     jumps to .Ltmp5
	.byte	0                       @   On action: cleanup
	.long	.Ltmp6-.Lfunc_begin0    @ >> Call Site 5 <<
	.long	.Ltmp7-.Ltmp6           @   Call between .Ltmp6 and .Ltmp7
	.long	.Ltmp8-.Lfunc_begin0    @     jumps to .Ltmp8
	.byte	0                       @   On action: cleanup
	.long	.Ltmp9-.Lfunc_begin0    @ >> Call Site 6 <<
	.long	.Ltmp10-.Ltmp9          @   Call between .Ltmp9 and .Ltmp10
	.long	.Ltmp11-.Lfunc_begin0   @     jumps to .Ltmp11
	.byte	0                       @   On action: cleanup
	.long	.Ltmp12-.Lfunc_begin0   @ >> Call Site 7 <<
	.long	.Ltmp13-.Ltmp12         @   Call between .Ltmp12 and .Ltmp13
	.long	.Ltmp14-.Lfunc_begin0   @     jumps to .Ltmp14
	.byte	0                       @   On action: cleanup
	.long	.Ltmp15-.Lfunc_begin0   @ >> Call Site 8 <<
	.long	.Ltmp16-.Ltmp15         @   Call between .Ltmp15 and .Ltmp16
	.long	.Ltmp17-.Lfunc_begin0   @     jumps to .Ltmp17
	.byte	0                       @   On action: cleanup
	.long	.Ltmp18-.Lfunc_begin0   @ >> Call Site 9 <<
	.long	.Ltmp19-.Ltmp18         @   Call between .Ltmp18 and .Ltmp19
	.long	.Ltmp20-.Lfunc_begin0   @     jumps to .Ltmp20
	.byte	0                       @   On action: cleanup
	.long	.Ltmp21-.Lfunc_begin0   @ >> Call Site 10 <<
	.long	.Ltmp22-.Ltmp21         @   Call between .Ltmp21 and .Ltmp22
	.long	.Ltmp23-.Lfunc_begin0   @     jumps to .Ltmp23
	.byte	0                       @   On action: cleanup
	.long	.Ltmp22-.Lfunc_begin0   @ >> Call Site 11 <<
	.long	.Lfunc_end0-.Ltmp22     @   Call between .Ltmp22 and .Lfunc_end0
	.long	0                       @     has no landing pad
	.byte	0                       @   On action: cleanup
	.p2align	2
	.fnend

	.globl	render
	.p2align	4
	.type	render,%function
render:                                 @ @render
.Lfunc_begin1:
	.loc	1 91 0                  @ /root/Bela/projects/haid_01_button_C/render.cpp:91:0
	.fnstart
	.cfi_startproc
@ BB#0:
	.save	{r4, r5, r6, r7, r8, r9, r10, r11, lr}
	push	{r4, r5, r6, r7, r8, r9, r10, r11, lr}
.Ltmp206:
	.cfi_def_cfa_offset 36
.Ltmp207:
	.cfi_offset lr, -4
.Ltmp208:
	.cfi_offset r11, -8
.Ltmp209:
	.cfi_offset r10, -12
.Ltmp210:
	.cfi_offset r9, -16
.Ltmp211:
	.cfi_offset r8, -20
.Ltmp212:
	.cfi_offset r7, -24
.Ltmp213:
	.cfi_offset r6, -28
.Ltmp214:
	.cfi_offset r5, -32
.Ltmp215:
	.cfi_offset r4, -36
	.setfp	r11, sp, #28
	add	r11, sp, #28
.Ltmp216:
	.cfi_def_cfa r11, 8
	.pad	#4
	sub	sp, sp, #4
	.vsave	{d8, d9, d10, d11, d12, d13, d14}
	vpush	{d8, d9, d10, d11, d12, d13, d14}
.Ltmp217:
	.cfi_offset d14, -48
.Ltmp218:
	.cfi_offset d13, -56
.Ltmp219:
	.cfi_offset d12, -64
.Ltmp220:
	.cfi_offset d11, -72
.Ltmp221:
	.cfi_offset d10, -80
.Ltmp222:
	.cfi_offset d9, -88
.Ltmp223:
	.cfi_offset d8, -96
	@DEBUG_VALUE: render:context <- %R0
	@DEBUG_VALUE: render:userData <- %R1
.Ltmp224:
	.loc	1 93 50 prologue_end    @ /root/Bela/projects/haid_01_button_C/render.cpp:93:50
	movw	r9, :lower16:.L_MergedGlobals
	.loc	1 93 35 is_stmt 0 discriminator 1 @ /root/Bela/projects/haid_01_button_C/render.cpp:93:35
	movw	r5, :lower16:.L_MergedGlobals.3
	.loc	1 93 50                 @ /root/Bela/projects/haid_01_button_C/render.cpp:93:50
	movt	r9, :upper16:.L_MergedGlobals
	.loc	1 93 35 discriminator 1 @ /root/Bela/projects/haid_01_button_C/render.cpp:93:35
	movt	r5, :upper16:.L_MergedGlobals.3
	.loc	1 93 50                 @ /root/Bela/projects/haid_01_button_C/render.cpp:93:50
	ldr	r1, [r9, #16]
.Ltmp225:
	.loc	1 93 35 discriminator 1 @ /root/Bela/projects/haid_01_button_C/render.cpp:93:35
	add	r6, r5, #44
	mov	r10, r0
.Ltmp226:
	@DEBUG_VALUE: render:context <- %R10
	mov	r0, r6
	bl	_ZN13GuiController14getSliderValueEi
	.loc	1 94 52 is_stmt 1       @ /root/Bela/projects/haid_01_button_C/render.cpp:94:52
	ldr	r1, [r9, #20]
	.loc	1 94 37 is_stmt 0 discriminator 1 @ /root/Bela/projects/haid_01_button_C/render.cpp:94:37
	mov	r0, r6
	.loc	1 93 35 is_stmt 1 discriminator 1 @ /root/Bela/projects/haid_01_button_C/render.cpp:93:35
	vorr	d10, d0, d0
.Ltmp227:
	@DEBUG_VALUE: render:hapticOscFreq <- %S20
	@DEBUG_VALUE: setFrequency:frequency <- %S20
	@DEBUG_VALUE: map:x <- %S20
	.loc	1 94 37 discriminator 1 @ /root/Bela/projects/haid_01_button_C/render.cpp:94:37
	bl	_ZN13GuiController14getSliderValueEi
	.loc	1 95 53                 @ /root/Bela/projects/haid_01_button_C/render.cpp:95:53
	ldr	r1, [r9, #24]
	.loc	1 95 38 is_stmt 0 discriminator 1 @ /root/Bela/projects/haid_01_button_C/render.cpp:95:38
	mov	r0, r6
	.loc	1 94 37 is_stmt 1 discriminator 1 @ /root/Bela/projects/haid_01_button_C/render.cpp:94:37
	vorr	d8, d0, d0
.Ltmp228:
	@DEBUG_VALUE: render:hapticAmplitude <- %S16
	.loc	1 95 38 discriminator 1 @ /root/Bela/projects/haid_01_button_C/render.cpp:95:38
	bl	_ZN13GuiController14getSliderValueEi
	.loc	1 96 48                 @ /root/Bela/projects/haid_01_button_C/render.cpp:96:48
	ldr	r1, [r9, #28]
	.loc	1 96 33 is_stmt 0 discriminator 1 @ /root/Bela/projects/haid_01_button_C/render.cpp:96:33
	mov	r0, r6
	.loc	1 95 38 is_stmt 1 discriminator 1 @ /root/Bela/projects/haid_01_button_C/render.cpp:95:38
	vorr	d9, d0, d0
.Ltmp229:
	@DEBUG_VALUE: render:audibleAmplitude <- %S18
	.loc	1 96 33 discriminator 1 @ /root/Bela/projects/haid_01_button_C/render.cpp:96:33
	bl	_ZN13GuiController14getSliderValueEi
.Ltmp230:
	@DEBUG_VALUE: render:oscOnTimeMs <- %S0
	.loc	2 28 14                 @ ./libraries/Oscillator/Oscillator.h:28:14
	vstr	s20, [r9, #60]
.Ltmp231:
	@DEBUG_VALUE: map:out_max <- %S8
	@DEBUG_VALUE: map:out_min <- %S6
	@DEBUG_VALUE: map:in_max <- %S4
	@DEBUG_VALUE: map:in_min <- %S2
	.loc	1 107 14                @ /root/Bela/projects/haid_01_button_C/render.cpp:107:14
	mov	r0, r5
	.loc	1 103 44                @ /root/Bela/projects/haid_01_button_C/render.cpp:103:44
	vldr	s2, [r9, #32]
.Ltmp232:
	.loc	1 103 92 is_stmt 0      @ /root/Bela/projects/haid_01_button_C/render.cpp:103:92
	vldr	s6, [r9, #40]
.Ltmp233:
	.loc	1 103 117               @ /root/Bela/projects/haid_01_button_C/render.cpp:103:117
	vldr	s8, [r9, #44]
.Ltmp234:
	.file	50 "./include" "Utilities.h"
	.loc	50 73 12 is_stmt 1      @ ./include/Utilities.h:73:12
	vsub.f32	d16, d10, d1
.Ltmp235:
	.loc	1 103 68                @ /root/Bela/projects/haid_01_button_C/render.cpp:103:68
	vldr	s4, [r9, #36]
.Ltmp236:
	.loc	50 73 33                @ ./include/Utilities.h:73:33
	vsub.f32	d17, d4, d3
.Ltmp237:
	.loc	1 107 32                @ /root/Bela/projects/haid_01_button_C/render.cpp:107:32
	vcvt.f64.f32	d18, s0
.Ltmp238:
	.loc	50 73 54                @ ./include/Utilities.h:73:54
	vsub.f32	d0, d2, d1
.Ltmp239:
	.loc	50 73 22 is_stmt 0      @ ./include/Utilities.h:73:22
	vmul.f32	d1, d17, d16
.Ltmp240:
	.loc	1 107 43 is_stmt 1      @ /root/Bela/projects/haid_01_button_C/render.cpp:107:43
	vldr	d16, .LCPI1_0
	vmul.f64	d16, d18, d16
.Ltmp241:
	.loc	50 73 44                @ ./include/Utilities.h:73:44
	vdiv.f32	s0, s2, s0
.Ltmp242:
	.loc	1 107 28                @ /root/Bela/projects/haid_01_button_C/render.cpp:107:28
	vcvt.f32.f64	s20, d16
.Ltmp243:
	.loc	50 73 64                @ ./include/Utilities.h:73:64
	vadd.f32	d0, d0, d3
.Ltmp244:
	@DEBUG_VALUE: setFrequency:frequency <- %S0
	@DEBUG_VALUE: render:audibleOscFreq <- %S0
	.loc	2 28 14                 @ ./libraries/Oscillator/Oscillator.h:28:14
	vstr	s0, [r9, #76]
.Ltmp245:
	.loc	1 107 14                @ /root/Bela/projects/haid_01_button_C/render.cpp:107:14
	vmov.f32	s0, s20
.Ltmp246:
	bl	_ZN3ASR13setAttackTimeEf
	.loc	1 108 14                @ /root/Bela/projects/haid_01_button_C/render.cpp:108:14
	vmov.f32	s0, s20
	mov	r0, r5
	bl	_ZN3ASR14setReleaseTimeEf
.Ltmp247:
	@DEBUG_VALUE: n <- 0
	.loc	1 111 39 discriminator 1 @ /root/Bela/projects/haid_01_button_C/render.cpp:111:39
	ldr	r0, [r10, #20]
	.loc	1 111 2 is_stmt 0 discriminator 1 @ /root/Bela/projects/haid_01_button_C/render.cpp:111:2
	cmp	r0, #0
	beq	.LBB1_15
.Ltmp248:
@ BB#1:                                 @ %.lr.ph56
	@DEBUG_VALUE: render:audibleAmplitude <- %S18
	@DEBUG_VALUE: render:hapticAmplitude <- %S16
	@DEBUG_VALUE: render:context <- %R10
	.loc	1 145 3 is_stmt 1 discriminator 1 @ /root/Bela/projects/haid_01_button_C/render.cpp:145:3
	vmov.i32	q6, #0x4
.Ltmp249:
	.loc	1 131 18                @ /root/Bela/projects/haid_01_button_C/render.cpp:131:18
	movw	r8, :lower16:.L_MergedGlobals.3
	mov	r6, #0
	movt	r8, :upper16:.L_MergedGlobals.3
.Ltmp250:
.LBB1_2:                                @ =>This Loop Header: Depth=1
                                        @     Child Loop BB1_10 Depth 2
                                        @     Child Loop BB1_13 Depth 2
	ldr	r0, [r10, #16]
	.loc	1 116 45                @ /root/Bela/projects/haid_01_button_C/render.cpp:116:45
	ldrd	r2, r3, [r9, #8]
.Ltmp251:
	.loc	24 1504 12              @ ./include/Bela.h:1504:12
	ldr	r0, [r0, r6, lsl #2]
	.loc	24 1504 49 is_stmt 0    @ ./include/Bela.h:1504:49
	add	r1, r2, #16
	.loc	24 1504 56              @ ./include/Bela.h:1504:56
	mov	r2, #1
	and	r4, r2, r0, lsr r1
.Ltmp252:
	@DEBUG_VALUE: buttonState <- %R4
	.loc	1 120 6 is_stmt 1       @ /root/Bela/projects/haid_01_button_C/render.cpp:120:6
	cmp	r4, r3
	beq	.LBB1_4
.Ltmp253:
@ BB#3:                                 @   in Loop: Header=BB1_2 Depth=1
	@DEBUG_VALUE: buttonState <- %R4
	.loc	1 122 16                @ /root/Bela/projects/haid_01_button_C/render.cpp:122:16
	mov	r0, r8
	bl	_ZN3ASR9triggerOnEv
	.loc	1 123 4                 @ /root/Bela/projects/haid_01_button_C/render.cpp:123:4
	movw	r0, :lower16:.L.str.10
	movt	r0, :upper16:.L.str.10
	bl	rt_printf
.Ltmp254:
.LBB1_4:                                @   in Loop: Header=BB1_2 Depth=1
	@DEBUG_VALUE: buttonState <- %R4
	.loc	1 131 18                @ /root/Bela/projects/haid_01_button_C/render.cpp:131:18
	mov	r0, r8
.Ltmp255:
	.loc	1 126 24                @ /root/Bela/projects/haid_01_button_C/render.cpp:126:24
	str	r4, [r9, #12]
.Ltmp256:
	.loc	1 131 18                @ /root/Bela/projects/haid_01_button_C/render.cpp:131:18
	bl	_ZN3ASR15getCurrentStateEv
.Ltmp257:
	.loc	1 131 6 is_stmt 0       @ /root/Bela/projects/haid_01_button_C/render.cpp:131:6
	cmp	r0, #1
	bne	.LBB1_6
.Ltmp258:
@ BB#5:                                 @   in Loop: Header=BB1_2 Depth=1
	@DEBUG_VALUE: buttonState <- %R4
	.loc	1 133 17 is_stmt 1      @ /root/Bela/projects/haid_01_button_C/render.cpp:133:17
	mov	r0, r8
	bl	_ZN3ASR10triggerOffEv
	.loc	1 134 5                 @ /root/Bela/projects/haid_01_button_C/render.cpp:134:5
	movw	r0, :lower16:.L.str.11
	movt	r0, :upper16:.L.str.11
	bl	rt_printf
.Ltmp259:
.LBB1_6:                                @   in Loop: Header=BB1_2 Depth=1
	@DEBUG_VALUE: buttonState <- %R4
	.loc	1 140 32 discriminator 1 @ /root/Bela/projects/haid_01_button_C/render.cpp:140:32
	mov	r0, r8
	bl	_ZN3ASR7processEv
	.loc	1 141 31 discriminator 1 @ /root/Bela/projects/haid_01_button_C/render.cpp:141:31
	add	r0, r9, #56
.Ltmp260:
	@DEBUG_VALUE: setFrequency:this <- %R0
	.loc	1 140 32 discriminator 1 @ /root/Bela/projects/haid_01_button_C/render.cpp:140:32
                                        @ kill: %S0<def> %S0<kill> %D0<def>
.Ltmp261:
	@DEBUG_VALUE: envelope <- %S0
	.loc	1 142 43                @ /root/Bela/projects/haid_01_button_C/render.cpp:142:43
	vmul.f32	d11, d0, d9
	.loc	1 141 41                @ /root/Bela/projects/haid_01_button_C/render.cpp:141:41
	vmul.f32	d14, d0, d8
	.loc	1 141 31 is_stmt 0 discriminator 1 @ /root/Bela/projects/haid_01_button_C/render.cpp:141:31
	bl	_ZN10Oscillator7processEv
.Ltmp262:
	.loc	1 142 33 is_stmt 1 discriminator 1 @ /root/Bela/projects/haid_01_button_C/render.cpp:142:33
	add	r0, r9, #72
.Ltmp263:
	@DEBUG_VALUE: setFrequency:this <- %R0
	.loc	1 141 31 discriminator 1 @ /root/Bela/projects/haid_01_button_C/render.cpp:141:31
	vorr	d10, d0, d0
	.loc	1 142 33 discriminator 1 @ /root/Bela/projects/haid_01_button_C/render.cpp:142:33
	bl	_ZN10Oscillator7processEv
.Ltmp264:
	.loc	1 145 52 discriminator 1 @ /root/Bela/projects/haid_01_button_C/render.cpp:145:52
	ldr	r0, [r10, #28]
.Ltmp265:
	.loc	1 142 33 discriminator 1 @ /root/Bela/projects/haid_01_button_C/render.cpp:142:33
                                        @ kill: %S0<def> %S0<kill> %D0<def>
.Ltmp266:
	.loc	1 145 3 discriminator 1 @ /root/Bela/projects/haid_01_button_C/render.cpp:145:3
	cmp	r0, #0
.Ltmp267:
	@DEBUG_VALUE: channel <- 0
	beq	.LBB1_14
.Ltmp268:
@ BB#7:                                 @ %.lr.ph
                                        @   in Loop: Header=BB1_2 Depth=1
	@DEBUG_VALUE: buttonState <- %R4
	.loc	1 141 59                @ /root/Bela/projects/haid_01_button_C/render.cpp:141:59
	vmul.f32	d1, d14, d10
	ldr	r3, [r10, #4]
	.loc	1 142 62                @ /root/Bela/projects/haid_01_button_C/render.cpp:142:62
	vmul.f32	d0, d11, d0
.Ltmp269:
	@DEBUG_VALUE: audibleOut <- %S0
	@DEBUG_VALUE: hapticOut <- %S2
	@DEBUG_VALUE: out <- %S2
	.loc	1 150 24                @ /root/Bela/projects/haid_01_button_C/render.cpp:150:24
	ldr	r2, [r9]
	ldr	r1, [r9, #4]
	mov	r5, #0
.Ltmp270:
	.loc	1 145 3 discriminator 1 @ /root/Bela/projects/haid_01_button_C/render.cpp:145:3
	cmp	r0, #3
	bls	.LBB1_12
.Ltmp271:
@ BB#8:                                 @ %min.iters.checked
                                        @   in Loop: Header=BB1_2 Depth=1
	@DEBUG_VALUE: out <- %S2
	@DEBUG_VALUE: hapticOut <- %S2
	@DEBUG_VALUE: audibleOut <- %S0
	@DEBUG_VALUE: buttonState <- %R4
	mov	r12, r0
	bfc	r12, #0, #2
	cmp	r12, #0
	beq	.LBB1_12
.Ltmp272:
@ BB#9:                                 @ %vector.ph
                                        @   in Loop: Header=BB1_2 Depth=1
	@DEBUG_VALUE: out <- %S2
	@DEBUG_VALUE: hapticOut <- %S2
	@DEBUG_VALUE: audibleOut <- %S0
	@DEBUG_VALUE: buttonState <- %R4
	.loc	24 1455 26              @ ./include/Bela.h:1455:26
	mul	r5, r0, r6
	adr	r7, .LCPI1_1
.Ltmp273:
	.loc	1 145 3 discriminator 1 @ /root/Bela/projects/haid_01_button_C/render.cpp:145:3
	vdup.32	q8, d0[0]
	vdup.32	q9, d1[0]
	vld1.64	{d20, d21}, [r7:128]
	.loc	1 145 77 is_stmt 0 discriminator 3 @ /root/Bela/projects/haid_01_button_C/render.cpp:145:77
	mov	r7, r12
	.loc	1 145 3 discriminator 1 @ /root/Bela/projects/haid_01_button_C/render.cpp:145:3
	vdup.32	q11, r2
	vdup.32	q12, r1
.Ltmp274:
.LBB1_10:                               @ %vector.body
                                        @   Parent Loop BB1_2 Depth=1
                                        @ =>  This Inner Loop Header: Depth=2
	.loc	24 1455 2 is_stmt 1     @ ./include/Bela.h:1455:2
	vmov.32	r4, d20[0]
.Ltmp275:
	.loc	1 150 21                @ /root/Bela/projects/haid_01_button_C/render.cpp:150:21
	vceq.i32	q13, q10, q11
.Ltmp276:
	.loc	1 148 15                @ /root/Bela/projects/haid_01_button_C/render.cpp:148:15
	vceq.i32	q14, q10, q12
.Ltmp277:
	.loc	1 145 3 discriminator 1 @ /root/Bela/projects/haid_01_button_C/render.cpp:145:3
	subs	r7, r7, #4
	vadd.i32	q10, q10, q6
.Ltmp278:
	.loc	1 150 13                @ /root/Bela/projects/haid_01_button_C/render.cpp:150:13
	vand	q13, q9, q13
.Ltmp279:
	.loc	1 148 7                 @ /root/Bela/projects/haid_01_button_C/render.cpp:148:7
	vbsl	q14, q8, q13
.Ltmp280:
	.loc	24 1455 2               @ ./include/Bela.h:1455:2
	add	r4, r5, r4
	add	r4, r3, r4, lsl #2
	.loc	24 1455 65 is_stmt 0    @ ./include/Bela.h:1455:65
	vst1.32	{d28, d29}, [r4]
.Ltmp281:
	.loc	1 145 3 is_stmt 1 discriminator 1 @ /root/Bela/projects/haid_01_button_C/render.cpp:145:3
	bne	.LBB1_10
@ BB#11:                                @ %middle.block
                                        @   in Loop: Header=BB1_2 Depth=1
	mov	r5, r12
	cmp	r0, r12
	beq	.LBB1_14
.LBB1_12:                               @ %scalar.ph.preheader
                                        @   in Loop: Header=BB1_2 Depth=1
.Ltmp282:
	.loc	1 147 10                @ /root/Bela/projects/haid_01_button_C/render.cpp:147:10
	mla	r7, r0, r6, r5
	add	r3, r3, r7, lsl #2
.LBB1_13:                               @ %scalar.ph
                                        @   Parent Loop BB1_2 Depth=1
                                        @ =>  This Inner Loop Header: Depth=2
.Ltmp283:
	@DEBUG_VALUE: out <- 0.000000e+00
	.loc	1 150 13                @ /root/Bela/projects/haid_01_button_C/render.cpp:150:13
	cmp	r2, r5
	vmov.i32	d2, #0x0
	vmoveq.f32	s4, s2
.Ltmp284:
	.loc	1 148 7                 @ /root/Bela/projects/haid_01_button_C/render.cpp:148:7
	cmp	r1, r5
	vmoveq.f32	s4, s0
.Ltmp285:
	.loc	1 145 77 discriminator 3 @ /root/Bela/projects/haid_01_button_C/render.cpp:145:77
	add	r5, r5, #1
.Ltmp286:
	@DEBUG_VALUE: channel <- %R5
	.loc	1 145 3 is_stmt 0 discriminator 1 @ /root/Bela/projects/haid_01_button_C/render.cpp:145:3
	cmp	r5, r0
.Ltmp287:
	.loc	24 1455 65 is_stmt 1    @ ./include/Bela.h:1455:65
	vstmia	r3!, {s4}
	blo	.LBB1_13
.Ltmp288:
.LBB1_14:                               @ %._crit_edge
                                        @   in Loop: Header=BB1_2 Depth=1
	.loc	1 111 53 discriminator 3 @ /root/Bela/projects/haid_01_button_C/render.cpp:111:53
	add	r6, r6, #1
.Ltmp289:
	@DEBUG_VALUE: n <- %R6
	.loc	1 111 39 is_stmt 0 discriminator 1 @ /root/Bela/projects/haid_01_button_C/render.cpp:111:39
	ldr	r0, [r10, #20]
	.loc	1 111 2 discriminator 1 @ /root/Bela/projects/haid_01_button_C/render.cpp:111:2
	cmp	r6, r0
	blo	.LBB1_2
.Ltmp290:
.LBB1_15:                               @ %._crit_edge57
	.loc	1 156 1 is_stmt 1       @ /root/Bela/projects/haid_01_button_C/render.cpp:156:1
	vpop	{d8, d9, d10, d11, d12, d13, d14}
	add	sp, sp, #4
	pop	{r4, r5, r6, r7, r8, r9, r10, r11, pc}
.Ltmp291:
	.p2align	4
@ BB#16:
.LCPI1_1:
	.long	0                       @ 0x0
	.long	1                       @ 0x1
	.long	2                       @ 0x2
	.long	3                       @ 0x3
.LCPI1_0:
	.long	3539053052              @ double 5.0000000000000001E-4
	.long	1061184077
.Lfunc_end1:
	.size	render, .Lfunc_end1-render
	.cfi_endproc
	.fnend

	.globl	cleanup
	.p2align	2
	.type	cleanup,%function
cleanup:                                @ @cleanup
.Lfunc_begin2:
	.loc	1 159 0                 @ /root/Bela/projects/haid_01_button_C/render.cpp:159:0
	.fnstart
	.cfi_startproc
@ BB#0:
	@DEBUG_VALUE: cleanup:context <- %R0
	@DEBUG_VALUE: cleanup:userData <- %R1
	.loc	1 159 2 prologue_end    @ /root/Bela/projects/haid_01_button_C/render.cpp:159:2
	bx	lr
.Ltmp292:
.Lfunc_end2:
	.size	cleanup, .Lfunc_end2-cleanup
	.cfi_endproc
	.fnend

	.section	.text.startup,"ax",%progbits
	.p2align	2
	.type	_GLOBAL__sub_I_render.ii,%function
_GLOBAL__sub_I_render.ii:               @ @_GLOBAL__sub_I_render.ii
.Lfunc_begin3:
	.file	51 "/root/Bela/projects/haid_01_button_C/build" "render.cpp"
	.loc	51 0 0                  @ /root/Bela/projects/haid_01_button_C/build/render.cpp:0:0
	.fnstart
	.cfi_startproc
@ BB#0:
	.save	{r4, r5, r6, r7, r11, lr}
	push	{r4, r5, r6, r7, r11, lr}
.Ltmp293:
	.cfi_def_cfa_offset 24
.Ltmp294:
	.cfi_offset lr, -4
.Ltmp295:
	.cfi_offset r11, -8
.Ltmp296:
	.cfi_offset r7, -12
.Ltmp297:
	.cfi_offset r6, -16
.Ltmp298:
	.cfi_offset r5, -20
.Ltmp299:
	.cfi_offset r4, -24
	.setfp	r11, sp, #16
	add	r11, sp, #16
.Ltmp300:
	.cfi_def_cfa r11, 8
.Ltmp301:
	.loc	2 42 15 prologue_end    @ ./libraries/Oscillator/Oscillator.h:42:15
	movw	r0, :lower16:.L_MergedGlobals
.Ltmp302:
	.loc	1 46 5                  @ /root/Bela/projects/haid_01_button_C/render.cpp:46:5
	movw	r4, :lower16:gui
.Ltmp303:
	.loc	2 42 15                 @ ./libraries/Oscillator/Oscillator.h:42:15
	movt	r0, :upper16:.L_MergedGlobals
	mov	r6, #0
.Ltmp304:
	.loc	1 46 5                  @ /root/Bela/projects/haid_01_button_C/render.cpp:46:5
	movt	r4, :upper16:gui
.Ltmp305:
	.loc	2 42 15                 @ ./libraries/Oscillator/Oscillator.h:42:15
	str	r6, [r0, #68]
.Ltmp306:
	.loc	2 42 15 is_stmt 0       @ ./libraries/Oscillator/Oscillator.h:42:15
	str	r6, [r0, #84]
.Ltmp307:
	.loc	1 46 5 is_stmt 1        @ /root/Bela/projects/haid_01_button_C/render.cpp:46:5
	mov	r0, r4
	bl	_ZN3GuiC1Ev
	.loc	1 46 5 is_stmt 0 discriminator 1 @ /root/Bela/projects/haid_01_button_C/render.cpp:46:5
	movw	r5, :lower16:__dso_handle
	movw	r0, :lower16:_ZN3GuiD1Ev
	movt	r5, :upper16:__dso_handle
	movt	r0, :upper16:_ZN3GuiD1Ev
	mov	r1, r4
	mov	r2, r5
	bl	__cxa_atexit
.Ltmp308:
	.loc	1 48 15 is_stmt 1       @ /root/Bela/projects/haid_01_button_C/render.cpp:48:15
	movw	r7, :lower16:.L_MergedGlobals.3
	movt	r7, :upper16:.L_MergedGlobals.3
	add	r4, r7, #44
	mov	r0, r4
	bl	_ZN13GuiControllerC1Ev
	.loc	1 48 15 is_stmt 0 discriminator 1 @ /root/Bela/projects/haid_01_button_C/render.cpp:48:15
	movw	r0, :lower16:_ZN13GuiControllerD1Ev
	mov	r1, r4
	movt	r0, :upper16:_ZN13GuiControllerD1Ev
	mov	r2, r5
	bl	__cxa_atexit
.Ltmp309:
	.loc	22 61 12 is_stmt 1      @ /root/Bela/projects/haid_01_button_C/ASR/ASR.h:61:12
	vmov.i32	q8, #0x0
	add	r0, r7, #24
	vst1.64	{d16, d17}, [r0]
	str	r6, [r7, #40]
	pop	{r4, r5, r6, r7, r11, pc}
.Ltmp310:
.Lfunc_end3:
	.size	_GLOBAL__sub_I_render.ii, .Lfunc_end3-_GLOBAL__sub_I_render.ii
	.cfi_endproc
	.fnend

	.type	gOscToggle,%object      @ @gOscToggle
	.bss
	.globl	gOscToggle
gOscToggle:
	.byte	0                       @ 0x0
	.size	gOscToggle, 1

	.type	gOscOnCount,%object     @ @gOscOnCount
	.globl	gOscOnCount
	.p2align	2
gOscOnCount:
	.long	0                       @ 0x0
	.size	gOscOnCount, 4

	.type	gui,%object             @ @gui
	.globl	gui
	.p2align	2
gui:
	.zero	136
	.size	gui, 136

	.type	.L.str,%object          @ @.str
	.section	.rodata.str1.1,"aMS",%progbits,1
.L.str:
	.asciz	"gui"
	.size	.L.str, 4

	.type	.L.str.6,%object        @ @.str.6
	.section	.rodata.str1.8,"aMS",%progbits,1
	.p2align	3
.L.str.6:
	.asciz	"Haptic OSC freq"
	.size	.L.str.6, 16

	.type	.L.str.7,%object        @ @.str.7
	.p2align	3
.L.str.7:
	.asciz	"Haptic Amplitude"
	.size	.L.str.7, 17

	.type	.L.str.8,%object        @ @.str.8
	.p2align	3
.L.str.8:
	.asciz	"Audio Amplitude"
	.size	.L.str.8, 16

	.type	.L.str.9,%object        @ @.str.9
	.p2align	3
.L.str.9:
	.asciz	"Osc On T [ms]"
	.size	.L.str.9, 14

	.type	.L.str.10,%object       @ @.str.10
	.section	.rodata.str1.1,"aMS",%progbits,1
.L.str.10:
	.asciz	"Trigger envelope!\n"
	.size	.L.str.10, 19

	.type	.L.str.11,%object       @ @.str.11
.L.str.11:
	.asciz	"Release envelope!\n"
	.size	.L.str.11, 19

	.section	.init_array,"aw",%init_array
	.p2align	2
	.long	_GLOBAL__sub_I_render.ii(target1)
	.type	.L_MergedGlobals,%object @ @_MergedGlobals
	.data
	.p2align	4
.L_MergedGlobals:
	.long	1                       @ 0x1
	.long	0                       @ 0x0
	.long	0                       @ 0x0
	.long	0                       @ 0x0
	.long	0                       @ 0x0
	.long	0                       @ 0x0
	.long	0                       @ 0x0
	.long	0                       @ 0x0
	.long	1092616192              @ float 10
	.long	1128792064              @ float 200
	.long	1128792064              @ float 200
	.long	1138491392              @ float 440
	.long	1084227584              @ float 5
	.long	1123024896              @ float 120
	.zero	16
	.zero	16
	.size	.L_MergedGlobals, 88

	.type	.L_MergedGlobals.3,%object @ @_MergedGlobals.3
	.local	.L_MergedGlobals.3
	.comm	.L_MergedGlobals.3,108,16